

Microchip MPLAB XC8 Assembler V2.46 build 20240104201356 
                                                                                               Thu Oct 23 10:43:59 2025

Microchip MPLAB XC8 C Compiler v2.46 (Free license) build 20240104201356 Og1 
     1                           	processor	16F1936
     2                           	pagewidth 120
     3                           	opt	flic
     4                           	psect	idataBANK1,global,class=CODE,delta=2,noexec
     5                           	psect	cinit,global,class=CODE,merge=1,delta=2
     6                           	psect	bssCOMMON,global,class=COMMON,space=1,delta=1,noexec
     7                           	psect	bssBANK0,global,class=BANK0,space=1,delta=1,noexec
     8                           	psect	dataBANK1,global,class=BANK1,space=1,delta=1,noexec
     9                           	psect	inittext,global,class=CODE,delta=2
    10                           	psect	clrtext,global,class=CODE,delta=2
    11                           	psect	cstackCOMMON,global,class=COMMON,space=1,delta=1,noexec
    12                           	psect	cstackBANK0,global,class=BANK0,space=1,delta=1,noexec
    13                           	psect	maintext,global,class=CODE,merge=1,split=1,delta=2
    14                           	psect	text1,local,class=CODE,merge=1,delta=2
    15                           	psect	text2,local,class=CODE,merge=1,delta=2
    16                           	psect	text3,local,class=CODE,merge=1,delta=2
    17                           	psect	text4,local,class=CODE,merge=1,delta=2
    18                           	psect	text5,local,class=CODE,merge=1,delta=2
    19                           	psect	text6,local,class=CODE,merge=1,delta=2
    20                           	psect	text7,local,class=CODE,merge=1,delta=2
    21                           	psect	text8,local,class=CODE,merge=1,delta=2
    22                           	psect	text9,local,class=CODE,merge=1,delta=2
    23                           	psect	text10,local,class=CODE,merge=1,delta=2
    24                           	psect	text11,local,class=CODE,merge=1,delta=2
    25                           	psect	text12,local,class=CODE,merge=1,delta=2
    26                           	psect	text13,local,class=CODE,merge=1,delta=2
    27                           	psect	text14,local,class=CODE,merge=1,delta=2
    28                           	psect	text15,local,class=CODE,merge=1,delta=2
    29                           	psect	text16,local,class=CODE,merge=1,delta=2
    30                           	psect	intentry,global,class=CODE,delta=2
    31                           	psect	text18,local,class=CODE,merge=1,delta=2
    32                           	psect	text19,local,class=CODE,merge=1,delta=2
    33                           	psect	text20,local,class=CODE,merge=1,delta=2
    34                           	psect	text21,local,class=CODE,merge=1,delta=2
    35                           	psect	text22,local,class=CODE,merge=1,delta=2
    36                           	psect	text23,local,class=CODE,merge=1,delta=2
    37                           	psect	idloc,global,abs,ovrld,class=IDLOC,space=5,delta=2,noexec
    38                           	psect	config,global,abs,ovrld,class=CONFIG,space=4,delta=2,noexec
    39                           	dabs	1,0x7E,2
    40     0000                     
    41                           ; Version 2.20
    42                           ; Generated 12/02/2020 GMT
    43                           ; 
    44                           ; Copyright © 2020, Microchip Technology Inc. and its subsidiaries ("Microchip")
    45                           ; All rights reserved.
    46                           ; 
    47                           ; This software is developed by Microchip Technology Inc. and its subsidiaries ("Microch
      +                          ip").
    48                           ; 
    49                           ; Redistribution and use in source and binary forms, with or without modification, are
    50                           ; permitted provided that the following conditions are met:
    51                           ; 
    52                           ;     1. Redistributions of source code must retain the above copyright notice, this lis
      +                          t of
    53                           ;        conditions and the following disclaimer.
    54                           ; 
    55                           ;     2. Redistributions in binary form must reproduce the above copyright notice, this 
      +                          list
    56                           ;        of conditions and the following disclaimer in the documentation and/or other
    57                           ;        materials provided with the distribution.
    58                           ; 
    59                           ;     3. Microchip's name may not be used to endorse or promote products derived from th
      +                          is
    60                           ;        software without specific prior written permission.
    61                           ; 
    62                           ; THIS SOFTWARE IS PROVIDED BY MICROCHIP "AS IS" AND ANY EXPRESS OR IMPLIED WARRANTIES,
    63                           ; INCLUDING, BUT NOT LIMITED TO, THE IMPLIED WARRANTIES OF MERCHANTABILITY AND FITNESS F
      +                          OR
    64                           ; PURPOSE ARE DISCLAIMED.  IN NO EVENT SHALL MICROCHIP BE LIABLE FOR ANY DIRECT, INDIREC
      +                          T,
    65                           ; INCIDENTAL, SPECIAL, EXEMPLARY, OR CONSEQUENTIAL DAMAGES (INCLUDING BUT NOT LIMITED TO
    66                           ; PROCUREMENT OF SUBSTITUTE GOODS OR SERVICES; LOSS OF USE, DATA OR PROFITS; OR BUSINESS
    67                           ; INTERRUPTION) HOWSOEVER CAUSED AND ON ANY THEORY OF LIABILITY, WHETHER IN CONTRACT, ST
      +                          RICT
    68                           ; LIABILITY, OR TORT (INCLUDING NEGLIGENCE OR OTHERWISE) ARISING IN ANY WAY OUT OF THE U
      +                          SE OF
    69                           ; THIS SOFTWARE, EVEN IF ADVISED OF THE POSSIBILITY OF SUCH DAMAGE.
    70                           ; 
    71                           ; 
    72                           ; Code-generator required, PIC16F1936 Definitions
    73                           ; 
    74                           ; SFR Addresses
    75     0000                     	;# 
    76     0001                     	;# 
    77     0002                     	;# 
    78     0003                     	;# 
    79     0004                     	;# 
    80     0005                     	;# 
    81     0006                     	;# 
    82     0007                     	;# 
    83     0008                     	;# 
    84     0009                     	;# 
    85     000A                     	;# 
    86     000B                     	;# 
    87     000C                     	;# 
    88     000D                     	;# 
    89     000E                     	;# 
    90     0010                     	;# 
    91     0011                     	;# 
    92     0012                     	;# 
    93     0013                     	;# 
    94     0015                     	;# 
    95     0016                     	;# 
    96     0016                     	;# 
    97     0017                     	;# 
    98     0018                     	;# 
    99     0019                     	;# 
   100     001A                     	;# 
   101     001B                     	;# 
   102     001C                     	;# 
   103     001E                     	;# 
   104     001F                     	;# 
   105     008C                     	;# 
   106     008D                     	;# 
   107     008E                     	;# 
   108     0090                     	;# 
   109     0091                     	;# 
   110     0092                     	;# 
   111     0093                     	;# 
   112     0095                     	;# 
   113     0096                     	;# 
   114     0097                     	;# 
   115     0098                     	;# 
   116     0099                     	;# 
   117     009A                     	;# 
   118     009B                     	;# 
   119     009B                     	;# 
   120     009C                     	;# 
   121     009D                     	;# 
   122     009E                     	;# 
   123     010C                     	;# 
   124     010D                     	;# 
   125     010E                     	;# 
   126     0110                     	;# 
   127     0111                     	;# 
   128     0112                     	;# 
   129     0113                     	;# 
   130     0114                     	;# 
   131     0115                     	;# 
   132     0116                     	;# 
   133     0117                     	;# 
   134     0118                     	;# 
   135     0119                     	;# 
   136     011A                     	;# 
   137     011B                     	;# 
   138     011D                     	;# 
   139     018C                     	;# 
   140     018D                     	;# 
   141     0191                     	;# 
   142     0191                     	;# 
   143     0192                     	;# 
   144     0193                     	;# 
   145     0193                     	;# 
   146     0193                     	;# 
   147     0194                     	;# 
   148     0195                     	;# 
   149     0196                     	;# 
   150     0199                     	;# 
   151     019A                     	;# 
   152     019B                     	;# 
   153     019B                     	;# 
   154     019B                     	;# 
   155     019B                     	;# 
   156     019C                     	;# 
   157     019C                     	;# 
   158     019D                     	;# 
   159     019E                     	;# 
   160     019F                     	;# 
   161     020D                     	;# 
   162     0210                     	;# 
   163     0211                     	;# 
   164     0212                     	;# 
   165     0213                     	;# 
   166     0214                     	;# 
   167     0215                     	;# 
   168     0215                     	;# 
   169     0216                     	;# 
   170     0217                     	;# 
   171     0291                     	;# 
   172     0291                     	;# 
   173     0292                     	;# 
   174     0293                     	;# 
   175     0294                     	;# 
   176     0295                     	;# 
   177     0295                     	;# 
   178     0296                     	;# 
   179     0298                     	;# 
   180     0298                     	;# 
   181     0299                     	;# 
   182     029A                     	;# 
   183     029B                     	;# 
   184     029C                     	;# 
   185     029C                     	;# 
   186     029D                     	;# 
   187     029E                     	;# 
   188     029F                     	;# 
   189     0311                     	;# 
   190     0311                     	;# 
   191     0312                     	;# 
   192     0313                     	;# 
   193     0314                     	;# 
   194     0315                     	;# 
   195     0315                     	;# 
   196     0316                     	;# 
   197     0318                     	;# 
   198     0318                     	;# 
   199     0319                     	;# 
   200     031A                     	;# 
   201     031C                     	;# 
   202     031C                     	;# 
   203     031D                     	;# 
   204     031E                     	;# 
   205     0394                     	;# 
   206     0395                     	;# 
   207     0396                     	;# 
   208     0415                     	;# 
   209     0416                     	;# 
   210     0417                     	;# 
   211     041C                     	;# 
   212     041D                     	;# 
   213     041E                     	;# 
   214     0791                     	;# 
   215     0792                     	;# 
   216     0793                     	;# 
   217     0794                     	;# 
   218     0795                     	;# 
   219     0798                     	;# 
   220     0799                     	;# 
   221     07A0                     	;# 
   222     07A1                     	;# 
   223     07A3                     	;# 
   224     07A4                     	;# 
   225     07A6                     	;# 
   226     07A7                     	;# 
   227     07A9                     	;# 
   228     07AA                     	;# 
   229     0FE4                     	;# 
   230     0FE5                     	;# 
   231     0FE6                     	;# 
   232     0FE7                     	;# 
   233     0FE8                     	;# 
   234     0FE9                     	;# 
   235     0FEA                     	;# 
   236     0FEB                     	;# 
   237     0FED                     	;# 
   238     0FEE                     	;# 
   239     0FEF                     	;# 
   240     0000                     	;# 
   241     0001                     	;# 
   242     0002                     	;# 
   243     0003                     	;# 
   244     0004                     	;# 
   245     0005                     	;# 
   246     0006                     	;# 
   247     0007                     	;# 
   248     0008                     	;# 
   249     0009                     	;# 
   250     000A                     	;# 
   251     000B                     	;# 
   252     000C                     	;# 
   253     000D                     	;# 
   254     000E                     	;# 
   255     0010                     	;# 
   256     0011                     	;# 
   257     0012                     	;# 
   258     0013                     	;# 
   259     0015                     	;# 
   260     0016                     	;# 
   261     0016                     	;# 
   262     0017                     	;# 
   263     0018                     	;# 
   264     0019                     	;# 
   265     001A                     	;# 
   266     001B                     	;# 
   267     001C                     	;# 
   268     001E                     	;# 
   269     001F                     	;# 
   270     008C                     	;# 
   271     008D                     	;# 
   272     008E                     	;# 
   273     0090                     	;# 
   274     0091                     	;# 
   275     0092                     	;# 
   276     0093                     	;# 
   277     0095                     	;# 
   278     0096                     	;# 
   279     0097                     	;# 
   280     0098                     	;# 
   281     0099                     	;# 
   282     009A                     	;# 
   283     009B                     	;# 
   284     009B                     	;# 
   285     009C                     	;# 
   286     009D                     	;# 
   287     009E                     	;# 
   288     010C                     	;# 
   289     010D                     	;# 
   290     010E                     	;# 
   291     0110                     	;# 
   292     0111                     	;# 
   293     0112                     	;# 
   294     0113                     	;# 
   295     0114                     	;# 
   296     0115                     	;# 
   297     0116                     	;# 
   298     0117                     	;# 
   299     0118                     	;# 
   300     0119                     	;# 
   301     011A                     	;# 
   302     011B                     	;# 
   303     011D                     	;# 
   304     018C                     	;# 
   305     018D                     	;# 
   306     0191                     	;# 
   307     0191                     	;# 
   308     0192                     	;# 
   309     0193                     	;# 
   310     0193                     	;# 
   311     0193                     	;# 
   312     0194                     	;# 
   313     0195                     	;# 
   314     0196                     	;# 
   315     0199                     	;# 
   316     019A                     	;# 
   317     019B                     	;# 
   318     019B                     	;# 
   319     019B                     	;# 
   320     019B                     	;# 
   321     019C                     	;# 
   322     019C                     	;# 
   323     019D                     	;# 
   324     019E                     	;# 
   325     019F                     	;# 
   326     020D                     	;# 
   327     0210                     	;# 
   328     0211                     	;# 
   329     0212                     	;# 
   330     0213                     	;# 
   331     0214                     	;# 
   332     0215                     	;# 
   333     0215                     	;# 
   334     0216                     	;# 
   335     0217                     	;# 
   336     0291                     	;# 
   337     0291                     	;# 
   338     0292                     	;# 
   339     0293                     	;# 
   340     0294                     	;# 
   341     0295                     	;# 
   342     0295                     	;# 
   343     0296                     	;# 
   344     0298                     	;# 
   345     0298                     	;# 
   346     0299                     	;# 
   347     029A                     	;# 
   348     029B                     	;# 
   349     029C                     	;# 
   350     029C                     	;# 
   351     029D                     	;# 
   352     029E                     	;# 
   353     029F                     	;# 
   354     0311                     	;# 
   355     0311                     	;# 
   356     0312                     	;# 
   357     0313                     	;# 
   358     0314                     	;# 
   359     0315                     	;# 
   360     0315                     	;# 
   361     0316                     	;# 
   362     0318                     	;# 
   363     0318                     	;# 
   364     0319                     	;# 
   365     031A                     	;# 
   366     031C                     	;# 
   367     031C                     	;# 
   368     031D                     	;# 
   369     031E                     	;# 
   370     0394                     	;# 
   371     0395                     	;# 
   372     0396                     	;# 
   373     0415                     	;# 
   374     0416                     	;# 
   375     0417                     	;# 
   376     041C                     	;# 
   377     041D                     	;# 
   378     041E                     	;# 
   379     0791                     	;# 
   380     0792                     	;# 
   381     0793                     	;# 
   382     0794                     	;# 
   383     0795                     	;# 
   384     0798                     	;# 
   385     0799                     	;# 
   386     07A0                     	;# 
   387     07A1                     	;# 
   388     07A3                     	;# 
   389     07A4                     	;# 
   390     07A6                     	;# 
   391     07A7                     	;# 
   392     07A9                     	;# 
   393     07AA                     	;# 
   394     0FE4                     	;# 
   395     0FE5                     	;# 
   396     0FE6                     	;# 
   397     0FE7                     	;# 
   398     0FE8                     	;# 
   399     0FE9                     	;# 
   400     0FEA                     	;# 
   401     0FEB                     	;# 
   402     0FED                     	;# 
   403     0FEE                     	;# 
   404     0FEF                     	;# 
   405     0000                     	;# 
   406     0001                     	;# 
   407     0002                     	;# 
   408     0003                     	;# 
   409     0004                     	;# 
   410     0005                     	;# 
   411     0006                     	;# 
   412     0007                     	;# 
   413     0008                     	;# 
   414     0009                     	;# 
   415     000A                     	;# 
   416     000B                     	;# 
   417     000C                     	;# 
   418     000D                     	;# 
   419     000E                     	;# 
   420     0010                     	;# 
   421     0011                     	;# 
   422     0012                     	;# 
   423     0013                     	;# 
   424     0015                     	;# 
   425     0016                     	;# 
   426     0016                     	;# 
   427     0017                     	;# 
   428     0018                     	;# 
   429     0019                     	;# 
   430     001A                     	;# 
   431     001B                     	;# 
   432     001C                     	;# 
   433     001E                     	;# 
   434     001F                     	;# 
   435     008C                     	;# 
   436     008D                     	;# 
   437     008E                     	;# 
   438     0090                     	;# 
   439     0091                     	;# 
   440     0092                     	;# 
   441     0093                     	;# 
   442     0095                     	;# 
   443     0096                     	;# 
   444     0097                     	;# 
   445     0098                     	;# 
   446     0099                     	;# 
   447     009A                     	;# 
   448     009B                     	;# 
   449     009B                     	;# 
   450     009C                     	;# 
   451     009D                     	;# 
   452     009E                     	;# 
   453     010C                     	;# 
   454     010D                     	;# 
   455     010E                     	;# 
   456     0110                     	;# 
   457     0111                     	;# 
   458     0112                     	;# 
   459     0113                     	;# 
   460     0114                     	;# 
   461     0115                     	;# 
   462     0116                     	;# 
   463     0117                     	;# 
   464     0118                     	;# 
   465     0119                     	;# 
   466     011A                     	;# 
   467     011B                     	;# 
   468     011D                     	;# 
   469     018C                     	;# 
   470     018D                     	;# 
   471     0191                     	;# 
   472     0191                     	;# 
   473     0192                     	;# 
   474     0193                     	;# 
   475     0193                     	;# 
   476     0193                     	;# 
   477     0194                     	;# 
   478     0195                     	;# 
   479     0196                     	;# 
   480     0199                     	;# 
   481     019A                     	;# 
   482     019B                     	;# 
   483     019B                     	;# 
   484     019B                     	;# 
   485     019B                     	;# 
   486     019C                     	;# 
   487     019C                     	;# 
   488     019D                     	;# 
   489     019E                     	;# 
   490     019F                     	;# 
   491     020D                     	;# 
   492     0210                     	;# 
   493     0211                     	;# 
   494     0212                     	;# 
   495     0213                     	;# 
   496     0214                     	;# 
   497     0215                     	;# 
   498     0215                     	;# 
   499     0216                     	;# 
   500     0217                     	;# 
   501     0291                     	;# 
   502     0291                     	;# 
   503     0292                     	;# 
   504     0293                     	;# 
   505     0294                     	;# 
   506     0295                     	;# 
   507     0295                     	;# 
   508     0296                     	;# 
   509     0298                     	;# 
   510     0298                     	;# 
   511     0299                     	;# 
   512     029A                     	;# 
   513     029B                     	;# 
   514     029C                     	;# 
   515     029C                     	;# 
   516     029D                     	;# 
   517     029E                     	;# 
   518     029F                     	;# 
   519     0311                     	;# 
   520     0311                     	;# 
   521     0312                     	;# 
   522     0313                     	;# 
   523     0314                     	;# 
   524     0315                     	;# 
   525     0315                     	;# 
   526     0316                     	;# 
   527     0318                     	;# 
   528     0318                     	;# 
   529     0319                     	;# 
   530     031A                     	;# 
   531     031C                     	;# 
   532     031C                     	;# 
   533     031D                     	;# 
   534     031E                     	;# 
   535     0394                     	;# 
   536     0395                     	;# 
   537     0396                     	;# 
   538     0415                     	;# 
   539     0416                     	;# 
   540     0417                     	;# 
   541     041C                     	;# 
   542     041D                     	;# 
   543     041E                     	;# 
   544     0791                     	;# 
   545     0792                     	;# 
   546     0793                     	;# 
   547     0794                     	;# 
   548     0795                     	;# 
   549     0798                     	;# 
   550     0799                     	;# 
   551     07A0                     	;# 
   552     07A1                     	;# 
   553     07A3                     	;# 
   554     07A4                     	;# 
   555     07A6                     	;# 
   556     07A7                     	;# 
   557     07A9                     	;# 
   558     07AA                     	;# 
   559     0FE4                     	;# 
   560     0FE5                     	;# 
   561     0FE6                     	;# 
   562     0FE7                     	;# 
   563     0FE8                     	;# 
   564     0FE9                     	;# 
   565     0FEA                     	;# 
   566     0FEB                     	;# 
   567     0FED                     	;# 
   568     0FEE                     	;# 
   569     0FEF                     	;# 
   570     0000                     	;# 
   571     0001                     	;# 
   572     0002                     	;# 
   573     0003                     	;# 
   574     0004                     	;# 
   575     0005                     	;# 
   576     0006                     	;# 
   577     0007                     	;# 
   578     0008                     	;# 
   579     0009                     	;# 
   580     000A                     	;# 
   581     000B                     	;# 
   582     000C                     	;# 
   583     000D                     	;# 
   584     000E                     	;# 
   585     0010                     	;# 
   586     0011                     	;# 
   587     0012                     	;# 
   588     0013                     	;# 
   589     0015                     	;# 
   590     0016                     	;# 
   591     0016                     	;# 
   592     0017                     	;# 
   593     0018                     	;# 
   594     0019                     	;# 
   595     001A                     	;# 
   596     001B                     	;# 
   597     001C                     	;# 
   598     001E                     	;# 
   599     001F                     	;# 
   600     008C                     	;# 
   601     008D                     	;# 
   602     008E                     	;# 
   603     0090                     	;# 
   604     0091                     	;# 
   605     0092                     	;# 
   606     0093                     	;# 
   607     0095                     	;# 
   608     0096                     	;# 
   609     0097                     	;# 
   610     0098                     	;# 
   611     0099                     	;# 
   612     009A                     	;# 
   613     009B                     	;# 
   614     009B                     	;# 
   615     009C                     	;# 
   616     009D                     	;# 
   617     009E                     	;# 
   618     010C                     	;# 
   619     010D                     	;# 
   620     010E                     	;# 
   621     0110                     	;# 
   622     0111                     	;# 
   623     0112                     	;# 
   624     0113                     	;# 
   625     0114                     	;# 
   626     0115                     	;# 
   627     0116                     	;# 
   628     0117                     	;# 
   629     0118                     	;# 
   630     0119                     	;# 
   631     011A                     	;# 
   632     011B                     	;# 
   633     011D                     	;# 
   634     018C                     	;# 
   635     018D                     	;# 
   636     0191                     	;# 
   637     0191                     	;# 
   638     0192                     	;# 
   639     0193                     	;# 
   640     0193                     	;# 
   641     0193                     	;# 
   642     0194                     	;# 
   643     0195                     	;# 
   644     0196                     	;# 
   645     0199                     	;# 
   646     019A                     	;# 
   647     019B                     	;# 
   648     019B                     	;# 
   649     019B                     	;# 
   650     019B                     	;# 
   651     019C                     	;# 
   652     019C                     	;# 
   653     019D                     	;# 
   654     019E                     	;# 
   655     019F                     	;# 
   656     020D                     	;# 
   657     0210                     	;# 
   658     0211                     	;# 
   659     0212                     	;# 
   660     0213                     	;# 
   661     0214                     	;# 
   662     0215                     	;# 
   663     0215                     	;# 
   664     0216                     	;# 
   665     0217                     	;# 
   666     0291                     	;# 
   667     0291                     	;# 
   668     0292                     	;# 
   669     0293                     	;# 
   670     0294                     	;# 
   671     0295                     	;# 
   672     0295                     	;# 
   673     0296                     	;# 
   674     0298                     	;# 
   675     0298                     	;# 
   676     0299                     	;# 
   677     029A                     	;# 
   678     029B                     	;# 
   679     029C                     	;# 
   680     029C                     	;# 
   681     029D                     	;# 
   682     029E                     	;# 
   683     029F                     	;# 
   684     0311                     	;# 
   685     0311                     	;# 
   686     0312                     	;# 
   687     0313                     	;# 
   688     0314                     	;# 
   689     0315                     	;# 
   690     0315                     	;# 
   691     0316                     	;# 
   692     0318                     	;# 
   693     0318                     	;# 
   694     0319                     	;# 
   695     031A                     	;# 
   696     031C                     	;# 
   697     031C                     	;# 
   698     031D                     	;# 
   699     031E                     	;# 
   700     0394                     	;# 
   701     0395                     	;# 
   702     0396                     	;# 
   703     0415                     	;# 
   704     0416                     	;# 
   705     0417                     	;# 
   706     041C                     	;# 
   707     041D                     	;# 
   708     041E                     	;# 
   709     0791                     	;# 
   710     0792                     	;# 
   711     0793                     	;# 
   712     0794                     	;# 
   713     0795                     	;# 
   714     0798                     	;# 
   715     0799                     	;# 
   716     07A0                     	;# 
   717     07A1                     	;# 
   718     07A3                     	;# 
   719     07A4                     	;# 
   720     07A6                     	;# 
   721     07A7                     	;# 
   722     07A9                     	;# 
   723     07AA                     	;# 
   724     0FE4                     	;# 
   725     0FE5                     	;# 
   726     0FE6                     	;# 
   727     0FE7                     	;# 
   728     0FE8                     	;# 
   729     0FE9                     	;# 
   730     0FEA                     	;# 
   731     0FEB                     	;# 
   732     0FED                     	;# 
   733     0FEE                     	;# 
   734     0FEF                     	;# 
   735     0000                     	;# 
   736     0001                     	;# 
   737     0002                     	;# 
   738     0003                     	;# 
   739     0004                     	;# 
   740     0005                     	;# 
   741     0006                     	;# 
   742     0007                     	;# 
   743     0008                     	;# 
   744     0009                     	;# 
   745     000A                     	;# 
   746     000B                     	;# 
   747     000C                     	;# 
   748     000D                     	;# 
   749     000E                     	;# 
   750     0010                     	;# 
   751     0011                     	;# 
   752     0012                     	;# 
   753     0013                     	;# 
   754     0015                     	;# 
   755     0016                     	;# 
   756     0016                     	;# 
   757     0017                     	;# 
   758     0018                     	;# 
   759     0019                     	;# 
   760     001A                     	;# 
   761     001B                     	;# 
   762     001C                     	;# 
   763     001E                     	;# 
   764     001F                     	;# 
   765     008C                     	;# 
   766     008D                     	;# 
   767     008E                     	;# 
   768     0090                     	;# 
   769     0091                     	;# 
   770     0092                     	;# 
   771     0093                     	;# 
   772     0095                     	;# 
   773     0096                     	;# 
   774     0097                     	;# 
   775     0098                     	;# 
   776     0099                     	;# 
   777     009A                     	;# 
   778     009B                     	;# 
   779     009B                     	;# 
   780     009C                     	;# 
   781     009D                     	;# 
   782     009E                     	;# 
   783     010C                     	;# 
   784     010D                     	;# 
   785     010E                     	;# 
   786     0110                     	;# 
   787     0111                     	;# 
   788     0112                     	;# 
   789     0113                     	;# 
   790     0114                     	;# 
   791     0115                     	;# 
   792     0116                     	;# 
   793     0117                     	;# 
   794     0118                     	;# 
   795     0119                     	;# 
   796     011A                     	;# 
   797     011B                     	;# 
   798     011D                     	;# 
   799     018C                     	;# 
   800     018D                     	;# 
   801     0191                     	;# 
   802     0191                     	;# 
   803     0192                     	;# 
   804     0193                     	;# 
   805     0193                     	;# 
   806     0193                     	;# 
   807     0194                     	;# 
   808     0195                     	;# 
   809     0196                     	;# 
   810     0199                     	;# 
   811     019A                     	;# 
   812     019B                     	;# 
   813     019B                     	;# 
   814     019B                     	;# 
   815     019B                     	;# 
   816     019C                     	;# 
   817     019C                     	;# 
   818     019D                     	;# 
   819     019E                     	;# 
   820     019F                     	;# 
   821     020D                     	;# 
   822     0210                     	;# 
   823     0211                     	;# 
   824     0212                     	;# 
   825     0213                     	;# 
   826     0214                     	;# 
   827     0215                     	;# 
   828     0215                     	;# 
   829     0216                     	;# 
   830     0217                     	;# 
   831     0291                     	;# 
   832     0291                     	;# 
   833     0292                     	;# 
   834     0293                     	;# 
   835     0294                     	;# 
   836     0295                     	;# 
   837     0295                     	;# 
   838     0296                     	;# 
   839     0298                     	;# 
   840     0298                     	;# 
   841     0299                     	;# 
   842     029A                     	;# 
   843     029B                     	;# 
   844     029C                     	;# 
   845     029C                     	;# 
   846     029D                     	;# 
   847     029E                     	;# 
   848     029F                     	;# 
   849     0311                     	;# 
   850     0311                     	;# 
   851     0312                     	;# 
   852     0313                     	;# 
   853     0314                     	;# 
   854     0315                     	;# 
   855     0315                     	;# 
   856     0316                     	;# 
   857     0318                     	;# 
   858     0318                     	;# 
   859     0319                     	;# 
   860     031A                     	;# 
   861     031C                     	;# 
   862     031C                     	;# 
   863     031D                     	;# 
   864     031E                     	;# 
   865     0394                     	;# 
   866     0395                     	;# 
   867     0396                     	;# 
   868     0415                     	;# 
   869     0416                     	;# 
   870     0417                     	;# 
   871     041C                     	;# 
   872     041D                     	;# 
   873     041E                     	;# 
   874     0791                     	;# 
   875     0792                     	;# 
   876     0793                     	;# 
   877     0794                     	;# 
   878     0795                     	;# 
   879     0798                     	;# 
   880     0799                     	;# 
   881     07A0                     	;# 
   882     07A1                     	;# 
   883     07A3                     	;# 
   884     07A4                     	;# 
   885     07A6                     	;# 
   886     07A7                     	;# 
   887     07A9                     	;# 
   888     07AA                     	;# 
   889     0FE4                     	;# 
   890     0FE5                     	;# 
   891     0FE6                     	;# 
   892     0FE7                     	;# 
   893     0FE8                     	;# 
   894     0FE9                     	;# 
   895     0FEA                     	;# 
   896     0FEB                     	;# 
   897     0FED                     	;# 
   898     0FEE                     	;# 
   899     0FEF                     	;# 
   900     0000                     	;# 
   901     0001                     	;# 
   902     0002                     	;# 
   903     0003                     	;# 
   904     0004                     	;# 
   905     0005                     	;# 
   906     0006                     	;# 
   907     0007                     	;# 
   908     0008                     	;# 
   909     0009                     	;# 
   910     000A                     	;# 
   911     000B                     	;# 
   912     000C                     	;# 
   913     000D                     	;# 
   914     000E                     	;# 
   915     0010                     	;# 
   916     0011                     	;# 
   917     0012                     	;# 
   918     0013                     	;# 
   919     0015                     	;# 
   920     0016                     	;# 
   921     0016                     	;# 
   922     0017                     	;# 
   923     0018                     	;# 
   924     0019                     	;# 
   925     001A                     	;# 
   926     001B                     	;# 
   927     001C                     	;# 
   928     001E                     	;# 
   929     001F                     	;# 
   930     008C                     	;# 
   931     008D                     	;# 
   932     008E                     	;# 
   933     0090                     	;# 
   934     0091                     	;# 
   935     0092                     	;# 
   936     0093                     	;# 
   937     0095                     	;# 
   938     0096                     	;# 
   939     0097                     	;# 
   940     0098                     	;# 
   941     0099                     	;# 
   942     009A                     	;# 
   943     009B                     	;# 
   944     009B                     	;# 
   945     009C                     	;# 
   946     009D                     	;# 
   947     009E                     	;# 
   948     010C                     	;# 
   949     010D                     	;# 
   950     010E                     	;# 
   951     0110                     	;# 
   952     0111                     	;# 
   953     0112                     	;# 
   954     0113                     	;# 
   955     0114                     	;# 
   956     0115                     	;# 
   957     0116                     	;# 
   958     0117                     	;# 
   959     0118                     	;# 
   960     0119                     	;# 
   961     011A                     	;# 
   962     011B                     	;# 
   963     011D                     	;# 
   964     018C                     	;# 
   965     018D                     	;# 
   966     0191                     	;# 
   967     0191                     	;# 
   968     0192                     	;# 
   969     0193                     	;# 
   970     0193                     	;# 
   971     0193                     	;# 
   972     0194                     	;# 
   973     0195                     	;# 
   974     0196                     	;# 
   975     0199                     	;# 
   976     019A                     	;# 
   977     019B                     	;# 
   978     019B                     	;# 
   979     019B                     	;# 
   980     019B                     	;# 
   981     019C                     	;# 
   982     019C                     	;# 
   983     019D                     	;# 
   984     019E                     	;# 
   985     019F                     	;# 
   986     020D                     	;# 
   987     0210                     	;# 
   988     0211                     	;# 
   989     0212                     	;# 
   990     0213                     	;# 
   991     0214                     	;# 
   992     0215                     	;# 
   993     0215                     	;# 
   994     0216                     	;# 
   995     0217                     	;# 
   996     0291                     	;# 
   997     0291                     	;# 
   998     0292                     	;# 
   999     0293                     	;# 
  1000     0294                     	;# 
  1001     0295                     	;# 
  1002     0295                     	;# 
  1003     0296                     	;# 
  1004     0298                     	;# 
  1005     0298                     	;# 
  1006     0299                     	;# 
  1007     029A                     	;# 
  1008     029B                     	;# 
  1009     029C                     	;# 
  1010     029C                     	;# 
  1011     029D                     	;# 
  1012     029E                     	;# 
  1013     029F                     	;# 
  1014     0311                     	;# 
  1015     0311                     	;# 
  1016     0312                     	;# 
  1017     0313                     	;# 
  1018     0314                     	;# 
  1019     0315                     	;# 
  1020     0315                     	;# 
  1021     0316                     	;# 
  1022     0318                     	;# 
  1023     0318                     	;# 
  1024     0319                     	;# 
  1025     031A                     	;# 
  1026     031C                     	;# 
  1027     031C                     	;# 
  1028     031D                     	;# 
  1029     031E                     	;# 
  1030     0394                     	;# 
  1031     0395                     	;# 
  1032     0396                     	;# 
  1033     0415                     	;# 
  1034     0416                     	;# 
  1035     0417                     	;# 
  1036     041C                     	;# 
  1037     041D                     	;# 
  1038     041E                     	;# 
  1039     0791                     	;# 
  1040     0792                     	;# 
  1041     0793                     	;# 
  1042     0794                     	;# 
  1043     0795                     	;# 
  1044     0798                     	;# 
  1045     0799                     	;# 
  1046     07A0                     	;# 
  1047     07A1                     	;# 
  1048     07A3                     	;# 
  1049     07A4                     	;# 
  1050     07A6                     	;# 
  1051     07A7                     	;# 
  1052     07A9                     	;# 
  1053     07AA                     	;# 
  1054     0FE4                     	;# 
  1055     0FE5                     	;# 
  1056     0FE6                     	;# 
  1057     0FE7                     	;# 
  1058     0FE8                     	;# 
  1059     0FE9                     	;# 
  1060     0FEA                     	;# 
  1061     0FEB                     	;# 
  1062     0FED                     	;# 
  1063     0FEE                     	;# 
  1064     0FEF                     	;# 
  1065     0000                     	;# 
  1066     0001                     	;# 
  1067     0002                     	;# 
  1068     0003                     	;# 
  1069     0004                     	;# 
  1070     0005                     	;# 
  1071     0006                     	;# 
  1072     0007                     	;# 
  1073     0008                     	;# 
  1074     0009                     	;# 
  1075     000A                     	;# 
  1076     000B                     	;# 
  1077     000C                     	;# 
  1078     000D                     	;# 
  1079     000E                     	;# 
  1080     0010                     	;# 
  1081     0011                     	;# 
  1082     0012                     	;# 
  1083     0013                     	;# 
  1084     0015                     	;# 
  1085     0016                     	;# 
  1086     0016                     	;# 
  1087     0017                     	;# 
  1088     0018                     	;# 
  1089     0019                     	;# 
  1090     001A                     	;# 
  1091     001B                     	;# 
  1092     001C                     	;# 
  1093     001E                     	;# 
  1094     001F                     	;# 
  1095     008C                     	;# 
  1096     008D                     	;# 
  1097     008E                     	;# 
  1098     0090                     	;# 
  1099     0091                     	;# 
  1100     0092                     	;# 
  1101     0093                     	;# 
  1102     0095                     	;# 
  1103     0096                     	;# 
  1104     0097                     	;# 
  1105     0098                     	;# 
  1106     0099                     	;# 
  1107     009A                     	;# 
  1108     009B                     	;# 
  1109     009B                     	;# 
  1110     009C                     	;# 
  1111     009D                     	;# 
  1112     009E                     	;# 
  1113     010C                     	;# 
  1114     010D                     	;# 
  1115     010E                     	;# 
  1116     0110                     	;# 
  1117     0111                     	;# 
  1118     0112                     	;# 
  1119     0113                     	;# 
  1120     0114                     	;# 
  1121     0115                     	;# 
  1122     0116                     	;# 
  1123     0117                     	;# 
  1124     0118                     	;# 
  1125     0119                     	;# 
  1126     011A                     	;# 
  1127     011B                     	;# 
  1128     011D                     	;# 
  1129     018C                     	;# 
  1130     018D                     	;# 
  1131     0191                     	;# 
  1132     0191                     	;# 
  1133     0192                     	;# 
  1134     0193                     	;# 
  1135     0193                     	;# 
  1136     0193                     	;# 
  1137     0194                     	;# 
  1138     0195                     	;# 
  1139     0196                     	;# 
  1140     0199                     	;# 
  1141     019A                     	;# 
  1142     019B                     	;# 
  1143     019B                     	;# 
  1144     019B                     	;# 
  1145     019B                     	;# 
  1146     019C                     	;# 
  1147     019C                     	;# 
  1148     019D                     	;# 
  1149     019E                     	;# 
  1150     019F                     	;# 
  1151     020D                     	;# 
  1152     0210                     	;# 
  1153     0211                     	;# 
  1154     0212                     	;# 
  1155     0213                     	;# 
  1156     0214                     	;# 
  1157     0215                     	;# 
  1158     0215                     	;# 
  1159     0216                     	;# 
  1160     0217                     	;# 
  1161     0291                     	;# 
  1162     0291                     	;# 
  1163     0292                     	;# 
  1164     0293                     	;# 
  1165     0294                     	;# 
  1166     0295                     	;# 
  1167     0295                     	;# 
  1168     0296                     	;# 
  1169     0298                     	;# 
  1170     0298                     	;# 
  1171     0299                     	;# 
  1172     029A                     	;# 
  1173     029B                     	;# 
  1174     029C                     	;# 
  1175     029C                     	;# 
  1176     029D                     	;# 
  1177     029E                     	;# 
  1178     029F                     	;# 
  1179     0311                     	;# 
  1180     0311                     	;# 
  1181     0312                     	;# 
  1182     0313                     	;# 
  1183     0314                     	;# 
  1184     0315                     	;# 
  1185     0315                     	;# 
  1186     0316                     	;# 
  1187     0318                     	;# 
  1188     0318                     	;# 
  1189     0319                     	;# 
  1190     031A                     	;# 
  1191     031C                     	;# 
  1192     031C                     	;# 
  1193     031D                     	;# 
  1194     031E                     	;# 
  1195     0394                     	;# 
  1196     0395                     	;# 
  1197     0396                     	;# 
  1198     0415                     	;# 
  1199     0416                     	;# 
  1200     0417                     	;# 
  1201     041C                     	;# 
  1202     041D                     	;# 
  1203     041E                     	;# 
  1204     0791                     	;# 
  1205     0792                     	;# 
  1206     0793                     	;# 
  1207     0794                     	;# 
  1208     0795                     	;# 
  1209     0798                     	;# 
  1210     0799                     	;# 
  1211     07A0                     	;# 
  1212     07A1                     	;# 
  1213     07A3                     	;# 
  1214     07A4                     	;# 
  1215     07A6                     	;# 
  1216     07A7                     	;# 
  1217     07A9                     	;# 
  1218     07AA                     	;# 
  1219     0FE4                     	;# 
  1220     0FE5                     	;# 
  1221     0FE6                     	;# 
  1222     0FE7                     	;# 
  1223     0FE8                     	;# 
  1224     0FE9                     	;# 
  1225     0FEA                     	;# 
  1226     0FEB                     	;# 
  1227     0FED                     	;# 
  1228     0FEE                     	;# 
  1229     0FEF                     	;# 
  1230     0000                     	;# 
  1231     0001                     	;# 
  1232     0002                     	;# 
  1233     0003                     	;# 
  1234     0004                     	;# 
  1235     0005                     	;# 
  1236     0006                     	;# 
  1237     0007                     	;# 
  1238     0008                     	;# 
  1239     0009                     	;# 
  1240     000A                     	;# 
  1241     000B                     	;# 
  1242     000C                     	;# 
  1243     000D                     	;# 
  1244     000E                     	;# 
  1245     0010                     	;# 
  1246     0011                     	;# 
  1247     0012                     	;# 
  1248     0013                     	;# 
  1249     0015                     	;# 
  1250     0016                     	;# 
  1251     0016                     	;# 
  1252     0017                     	;# 
  1253     0018                     	;# 
  1254     0019                     	;# 
  1255     001A                     	;# 
  1256     001B                     	;# 
  1257     001C                     	;# 
  1258     001E                     	;# 
  1259     001F                     	;# 
  1260     008C                     	;# 
  1261     008D                     	;# 
  1262     008E                     	;# 
  1263     0090                     	;# 
  1264     0091                     	;# 
  1265     0092                     	;# 
  1266     0093                     	;# 
  1267     0095                     	;# 
  1268     0096                     	;# 
  1269     0097                     	;# 
  1270     0098                     	;# 
  1271     0099                     	;# 
  1272     009A                     	;# 
  1273     009B                     	;# 
  1274     009B                     	;# 
  1275     009C                     	;# 
  1276     009D                     	;# 
  1277     009E                     	;# 
  1278     010C                     	;# 
  1279     010D                     	;# 
  1280     010E                     	;# 
  1281     0110                     	;# 
  1282     0111                     	;# 
  1283     0112                     	;# 
  1284     0113                     	;# 
  1285     0114                     	;# 
  1286     0115                     	;# 
  1287     0116                     	;# 
  1288     0117                     	;# 
  1289     0118                     	;# 
  1290     0119                     	;# 
  1291     011A                     	;# 
  1292     011B                     	;# 
  1293     011D                     	;# 
  1294     018C                     	;# 
  1295     018D                     	;# 
  1296     0191                     	;# 
  1297     0191                     	;# 
  1298     0192                     	;# 
  1299     0193                     	;# 
  1300     0193                     	;# 
  1301     0193                     	;# 
  1302     0194                     	;# 
  1303     0195                     	;# 
  1304     0196                     	;# 
  1305     0199                     	;# 
  1306     019A                     	;# 
  1307     019B                     	;# 
  1308     019B                     	;# 
  1309     019B                     	;# 
  1310     019B                     	;# 
  1311     019C                     	;# 
  1312     019C                     	;# 
  1313     019D                     	;# 
  1314     019E                     	;# 
  1315     019F                     	;# 
  1316     020D                     	;# 
  1317     0210                     	;# 
  1318     0211                     	;# 
  1319     0212                     	;# 
  1320     0213                     	;# 
  1321     0214                     	;# 
  1322     0215                     	;# 
  1323     0215                     	;# 
  1324     0216                     	;# 
  1325     0217                     	;# 
  1326     0291                     	;# 
  1327     0291                     	;# 
  1328     0292                     	;# 
  1329     0293                     	;# 
  1330     0294                     	;# 
  1331     0295                     	;# 
  1332     0295                     	;# 
  1333     0296                     	;# 
  1334     0298                     	;# 
  1335     0298                     	;# 
  1336     0299                     	;# 
  1337     029A                     	;# 
  1338     029B                     	;# 
  1339     029C                     	;# 
  1340     029C                     	;# 
  1341     029D                     	;# 
  1342     029E                     	;# 
  1343     029F                     	;# 
  1344     0311                     	;# 
  1345     0311                     	;# 
  1346     0312                     	;# 
  1347     0313                     	;# 
  1348     0314                     	;# 
  1349     0315                     	;# 
  1350     0315                     	;# 
  1351     0316                     	;# 
  1352     0318                     	;# 
  1353     0318                     	;# 
  1354     0319                     	;# 
  1355     031A                     	;# 
  1356     031C                     	;# 
  1357     031C                     	;# 
  1358     031D                     	;# 
  1359     031E                     	;# 
  1360     0394                     	;# 
  1361     0395                     	;# 
  1362     0396                     	;# 
  1363     0415                     	;# 
  1364     0416                     	;# 
  1365     0417                     	;# 
  1366     041C                     	;# 
  1367     041D                     	;# 
  1368     041E                     	;# 
  1369     0791                     	;# 
  1370     0792                     	;# 
  1371     0793                     	;# 
  1372     0794                     	;# 
  1373     0795                     	;# 
  1374     0798                     	;# 
  1375     0799                     	;# 
  1376     07A0                     	;# 
  1377     07A1                     	;# 
  1378     07A3                     	;# 
  1379     07A4                     	;# 
  1380     07A6                     	;# 
  1381     07A7                     	;# 
  1382     07A9                     	;# 
  1383     07AA                     	;# 
  1384     0FE4                     	;# 
  1385     0FE5                     	;# 
  1386     0FE6                     	;# 
  1387     0FE7                     	;# 
  1388     0FE8                     	;# 
  1389     0FE9                     	;# 
  1390     0FEA                     	;# 
  1391     0FEB                     	;# 
  1392     0FED                     	;# 
  1393     0FEE                     	;# 
  1394     0FEF                     	;# 
  1395     0000                     	;# 
  1396     0001                     	;# 
  1397     0002                     	;# 
  1398     0003                     	;# 
  1399     0004                     	;# 
  1400     0005                     	;# 
  1401     0006                     	;# 
  1402     0007                     	;# 
  1403     0008                     	;# 
  1404     0009                     	;# 
  1405     000A                     	;# 
  1406     000B                     	;# 
  1407     000C                     	;# 
  1408     000D                     	;# 
  1409     000E                     	;# 
  1410     0010                     	;# 
  1411     0011                     	;# 
  1412     0012                     	;# 
  1413     0013                     	;# 
  1414     0015                     	;# 
  1415     0016                     	;# 
  1416     0016                     	;# 
  1417     0017                     	;# 
  1418     0018                     	;# 
  1419     0019                     	;# 
  1420     001A                     	;# 
  1421     001B                     	;# 
  1422     001C                     	;# 
  1423     001E                     	;# 
  1424     001F                     	;# 
  1425     008C                     	;# 
  1426     008D                     	;# 
  1427     008E                     	;# 
  1428     0090                     	;# 
  1429     0091                     	;# 
  1430     0092                     	;# 
  1431     0093                     	;# 
  1432     0095                     	;# 
  1433     0096                     	;# 
  1434     0097                     	;# 
  1435     0098                     	;# 
  1436     0099                     	;# 
  1437     009A                     	;# 
  1438     009B                     	;# 
  1439     009B                     	;# 
  1440     009C                     	;# 
  1441     009D                     	;# 
  1442     009E                     	;# 
  1443     010C                     	;# 
  1444     010D                     	;# 
  1445     010E                     	;# 
  1446     0110                     	;# 
  1447     0111                     	;# 
  1448     0112                     	;# 
  1449     0113                     	;# 
  1450     0114                     	;# 
  1451     0115                     	;# 
  1452     0116                     	;# 
  1453     0117                     	;# 
  1454     0118                     	;# 
  1455     0119                     	;# 
  1456     011A                     	;# 
  1457     011B                     	;# 
  1458     011D                     	;# 
  1459     018C                     	;# 
  1460     018D                     	;# 
  1461     0191                     	;# 
  1462     0191                     	;# 
  1463     0192                     	;# 
  1464     0193                     	;# 
  1465     0193                     	;# 
  1466     0193                     	;# 
  1467     0194                     	;# 
  1468     0195                     	;# 
  1469     0196                     	;# 
  1470     0199                     	;# 
  1471     019A                     	;# 
  1472     019B                     	;# 
  1473     019B                     	;# 
  1474     019B                     	;# 
  1475     019B                     	;# 
  1476     019C                     	;# 
  1477     019C                     	;# 
  1478     019D                     	;# 
  1479     019E                     	;# 
  1480     019F                     	;# 
  1481     020D                     	;# 
  1482     0210                     	;# 
  1483     0211                     	;# 
  1484     0212                     	;# 
  1485     0213                     	;# 
  1486     0214                     	;# 
  1487     0215                     	;# 
  1488     0215                     	;# 
  1489     0216                     	;# 
  1490     0217                     	;# 
  1491     0291                     	;# 
  1492     0291                     	;# 
  1493     0292                     	;# 
  1494     0293                     	;# 
  1495     0294                     	;# 
  1496     0295                     	;# 
  1497     0295                     	;# 
  1498     0296                     	;# 
  1499     0298                     	;# 
  1500     0298                     	;# 
  1501     0299                     	;# 
  1502     029A                     	;# 
  1503     029B                     	;# 
  1504     029C                     	;# 
  1505     029C                     	;# 
  1506     029D                     	;# 
  1507     029E                     	;# 
  1508     029F                     	;# 
  1509     0311                     	;# 
  1510     0311                     	;# 
  1511     0312                     	;# 
  1512     0313                     	;# 
  1513     0314                     	;# 
  1514     0315                     	;# 
  1515     0315                     	;# 
  1516     0316                     	;# 
  1517     0318                     	;# 
  1518     0318                     	;# 
  1519     0319                     	;# 
  1520     031A                     	;# 
  1521     031C                     	;# 
  1522     031C                     	;# 
  1523     031D                     	;# 
  1524     031E                     	;# 
  1525     0394                     	;# 
  1526     0395                     	;# 
  1527     0396                     	;# 
  1528     0415                     	;# 
  1529     0416                     	;# 
  1530     0417                     	;# 
  1531     041C                     	;# 
  1532     041D                     	;# 
  1533     041E                     	;# 
  1534     0791                     	;# 
  1535     0792                     	;# 
  1536     0793                     	;# 
  1537     0794                     	;# 
  1538     0795                     	;# 
  1539     0798                     	;# 
  1540     0799                     	;# 
  1541     07A0                     	;# 
  1542     07A1                     	;# 
  1543     07A3                     	;# 
  1544     07A4                     	;# 
  1545     07A6                     	;# 
  1546     07A7                     	;# 
  1547     07A9                     	;# 
  1548     07AA                     	;# 
  1549     0FE4                     	;# 
  1550     0FE5                     	;# 
  1551     0FE6                     	;# 
  1552     0FE7                     	;# 
  1553     0FE8                     	;# 
  1554     0FE9                     	;# 
  1555     0FEA                     	;# 
  1556     0FEB                     	;# 
  1557     0FED                     	;# 
  1558     0FEE                     	;# 
  1559     0FEF                     	;# 
  1560     0000                     	;# 
  1561     0001                     	;# 
  1562     0002                     	;# 
  1563     0003                     	;# 
  1564     0004                     	;# 
  1565     0005                     	;# 
  1566     0006                     	;# 
  1567     0007                     	;# 
  1568     0008                     	;# 
  1569     0009                     	;# 
  1570     000A                     	;# 
  1571     000B                     	;# 
  1572     000C                     	;# 
  1573     000D                     	;# 
  1574     000E                     	;# 
  1575     0010                     	;# 
  1576     0011                     	;# 
  1577     0012                     	;# 
  1578     0013                     	;# 
  1579     0015                     	;# 
  1580     0016                     	;# 
  1581     0016                     	;# 
  1582     0017                     	;# 
  1583     0018                     	;# 
  1584     0019                     	;# 
  1585     001A                     	;# 
  1586     001B                     	;# 
  1587     001C                     	;# 
  1588     001E                     	;# 
  1589     001F                     	;# 
  1590     008C                     	;# 
  1591     008D                     	;# 
  1592     008E                     	;# 
  1593     0090                     	;# 
  1594     0091                     	;# 
  1595     0092                     	;# 
  1596     0093                     	;# 
  1597     0095                     	;# 
  1598     0096                     	;# 
  1599     0097                     	;# 
  1600     0098                     	;# 
  1601     0099                     	;# 
  1602     009A                     	;# 
  1603     009B                     	;# 
  1604     009B                     	;# 
  1605     009C                     	;# 
  1606     009D                     	;# 
  1607     009E                     	;# 
  1608     010C                     	;# 
  1609     010D                     	;# 
  1610     010E                     	;# 
  1611     0110                     	;# 
  1612     0111                     	;# 
  1613     0112                     	;# 
  1614     0113                     	;# 
  1615     0114                     	;# 
  1616     0115                     	;# 
  1617     0116                     	;# 
  1618     0117                     	;# 
  1619     0118                     	;# 
  1620     0119                     	;# 
  1621     011A                     	;# 
  1622     011B                     	;# 
  1623     011D                     	;# 
  1624     018C                     	;# 
  1625     018D                     	;# 
  1626     0191                     	;# 
  1627     0191                     	;# 
  1628     0192                     	;# 
  1629     0193                     	;# 
  1630     0193                     	;# 
  1631     0193                     	;# 
  1632     0194                     	;# 
  1633     0195                     	;# 
  1634     0196                     	;# 
  1635     0199                     	;# 
  1636     019A                     	;# 
  1637     019B                     	;# 
  1638     019B                     	;# 
  1639     019B                     	;# 
  1640     019B                     	;# 
  1641     019C                     	;# 
  1642     019C                     	;# 
  1643     019D                     	;# 
  1644     019E                     	;# 
  1645     019F                     	;# 
  1646     020D                     	;# 
  1647     0210                     	;# 
  1648     0211                     	;# 
  1649     0212                     	;# 
  1650     0213                     	;# 
  1651     0214                     	;# 
  1652     0215                     	;# 
  1653     0215                     	;# 
  1654     0216                     	;# 
  1655     0217                     	;# 
  1656     0291                     	;# 
  1657     0291                     	;# 
  1658     0292                     	;# 
  1659     0293                     	;# 
  1660     0294                     	;# 
  1661     0295                     	;# 
  1662     0295                     	;# 
  1663     0296                     	;# 
  1664     0298                     	;# 
  1665     0298                     	;# 
  1666     0299                     	;# 
  1667     029A                     	;# 
  1668     029B                     	;# 
  1669     029C                     	;# 
  1670     029C                     	;# 
  1671     029D                     	;# 
  1672     029E                     	;# 
  1673     029F                     	;# 
  1674     0311                     	;# 
  1675     0311                     	;# 
  1676     0312                     	;# 
  1677     0313                     	;# 
  1678     0314                     	;# 
  1679     0315                     	;# 
  1680     0315                     	;# 
  1681     0316                     	;# 
  1682     0318                     	;# 
  1683     0318                     	;# 
  1684     0319                     	;# 
  1685     031A                     	;# 
  1686     031C                     	;# 
  1687     031C                     	;# 
  1688     031D                     	;# 
  1689     031E                     	;# 
  1690     0394                     	;# 
  1691     0395                     	;# 
  1692     0396                     	;# 
  1693     0415                     	;# 
  1694     0416                     	;# 
  1695     0417                     	;# 
  1696     041C                     	;# 
  1697     041D                     	;# 
  1698     041E                     	;# 
  1699     0791                     	;# 
  1700     0792                     	;# 
  1701     0793                     	;# 
  1702     0794                     	;# 
  1703     0795                     	;# 
  1704     0798                     	;# 
  1705     0799                     	;# 
  1706     07A0                     	;# 
  1707     07A1                     	;# 
  1708     07A3                     	;# 
  1709     07A4                     	;# 
  1710     07A6                     	;# 
  1711     07A7                     	;# 
  1712     07A9                     	;# 
  1713     07AA                     	;# 
  1714     0FE4                     	;# 
  1715     0FE5                     	;# 
  1716     0FE6                     	;# 
  1717     0FE7                     	;# 
  1718     0FE8                     	;# 
  1719     0FE9                     	;# 
  1720     0FEA                     	;# 
  1721     0FEB                     	;# 
  1722     0FED                     	;# 
  1723     0FEE                     	;# 
  1724     0FEF                     	;# 
  1725                           
  1726                           	psect	idataBANK1
  1727     02FF                     __pidataBANK1:
  1728                           
  1729                           ;initializer for _CS
  1730     02FF  344C               	retlw	76
  1731     0300  349F               	retlw	159
  1732     0301  34ED               	retlw	237
  1733     0302  343E               	retlw	62
  1734     0303  349A               	retlw	154
  1735     0304  3400               	retlw	0
  1736     0305  3400               	retlw	0
  1737     0306  3400               	retlw	0
  1738     0307  3427               	retlw	39
  1739     0308  3400               	retlw	0
  1740     0309  3400               	retlw	0
  1741     030A  3400               	retlw	0
  1742     030B  3473               	retlw	115
  1743     030C  34A0               	retlw	160
  1744     030D  34D2               	retlw	210
  1745     030E  3401               	retlw	1
  1746     030F  348E               	retlw	142
  1747     0310  345D               	retlw	93
  1748     0311  342F               	retlw	47
  1749     0312  34FC               	retlw	252
  1750     0313  3467               	retlw	103
  1751     0314  3400               	retlw	0
  1752     0315  3400               	retlw	0
  1753     0316  3400               	retlw	0
  1754     0317  34DA               	retlw	218
  1755     0318  3400               	retlw	0
  1756     0319  3400               	retlw	0
  1757     031A  3400               	retlw	0
  1758     031B  34B1               	retlw	177
  1759     031C  3462               	retlw	98
  1760     031D  3410               	retlw	16
  1761     031E  34C3               	retlw	195
  1762     031F  342D               	retlw	45
  1763     0320  34FE               	retlw	254
  1764     0321  348C               	retlw	140
  1765     0322  345F               	retlw	95
  1766     0323  342C               	retlw	44
  1767     0324  3400               	retlw	0
  1768     0325  3400               	retlw	0
  1769     0326  3400               	retlw	0
  1770     0327  3438               	retlw	56
  1771     0328  34EB               	retlw	235
  1772     0329  3499               	retlw	153
  1773     032A  344A               	retlw	74
  1774     032B  3412               	retlw	18
  1775     032C  34C1               	retlw	193
  1776     032D  34B3               	retlw	179
  1777     032E  3460               	retlw	96
  1778     032F  34EF               	retlw	239
  1779     0330  343C               	retlw	60
  1780     0331  344E               	retlw	78
  1781     0332  349D               	retlw	157
  1782     0333  34D1               	retlw	209
  1783     0334  3400               	retlw	0
  1784     0335  3400               	retlw	0
  1785     0336  3400               	retlw	0
  1786     0337  346C               	retlw	108
  1787     0338  3400               	retlw	0
  1788     0339  3400               	retlw	0
  1789     033A  3400               	retlw	0
  1790     033B  34D0               	retlw	208
  1791     033C  3403               	retlw	3
  1792     033D  3471               	retlw	113
  1793     033E  34A2               	retlw	162
  1794     001C                     _T2CON	set	28
  1795     001A                     _TMR2	set	26
  1796     001B                     _PR2	set	27
  1797     0018                     _T1CON	set	24
  1798     0011                     _PIR1bits	set	17
  1799     0016                     _TMR1L	set	22
  1800     0017                     _TMR1H	set	23
  1801     0019                     _T1GCON	set	25
  1802     0015                     _TMR0	set	21
  1803     0013                     _PIR3bits	set	19
  1804     000D                     _PORTBbits	set	13
  1805     000B                     _INTCONbits	set	11
  1806     0095                     _OPTION_REG	set	149
  1807     0095                     _OPTION_REGbits	set	149
  1808     008E                     _TRISC	set	142
  1809     008D                     _TRISB	set	141
  1810     008C                     _TRISA	set	140
  1811     0090                     _TRISE	set	144
  1812     0097                     _WDTCON	set	151
  1813     0098                     _OSCTUNE	set	152
  1814     0099                     _OSCCON	set	153
  1815     0093                     _PIE3bits	set	147
  1816     04D6                     _PLLR	set	1238
  1817     011D                     _APFCON	set	285
  1818     010E                     _LATC	set	270
  1819     010D                     _LATB	set	269
  1820     010C                     _LATA	set	268
  1821     0110                     _LATE	set	272
  1822     0116                     _BORCON	set	278
  1823     010E                     _LATCbits	set	270
  1824     010C                     _LATAbits	set	268
  1825     018C                     _ANSELA	set	396
  1826     018D                     _ANSELB	set	397
  1827     020D                     _WPUB	set	525
  1828     0210                     _WPUE	set	528
  1829     029E                     _CCPTMRS0bits	set	670
  1830     0291                     _CCPR1L	set	657
  1831     0292                     _CCPR1H	set	658
  1832     0296                     _PSTR1CON	set	662
  1833     0294                     _PWM1CON	set	660
  1834     0295                     _ECCP1AS	set	661
  1835     0293                     _CCP1CON	set	659
  1836     0311                     _CCPR3L	set	785
  1837     0312                     _CCPR3H	set	786
  1838     0313                     _CCP3CON	set	787
  1839                           
  1840                           	psect	cinit
  1841     0028                     start_initialization:	
  1842                           ; #config settings
  1843                           
  1844     0028                     __initialization:
  1845                           
  1846                           ; Initialize objects allocated to BANK1
  1847     0028  30FF               	movlw	low __pidataBANK1
  1848     0029  0084               	movwf	4
  1849     002A  3082               	movlw	(high __pidataBANK1)| (0+128)
  1850     002B  0085               	movwf	5
  1851     002C  30A0               	movlw	low __pdataBANK1
  1852     002D  0086               	movwf	6
  1853     002E  3000               	movlw	high __pdataBANK1
  1854     002F  0087               	movwf	7
  1855     0030  3040               	movlw	64
  1856     0031  3184  24D2  3180   	fcall	init_ram
  1857                           
  1858                           ; Clear objects allocated to COMMON
  1859     0034  01F0               	clrf	__pbssCOMMON& (0+127)
  1860     0035  01F1               	clrf	(__pbssCOMMON+1)& (0+127)
  1861     0036  01F2               	clrf	(__pbssCOMMON+2)& (0+127)
  1862     0037  01F3               	clrf	(__pbssCOMMON+3)& (0+127)
  1863     0038  01F4               	clrf	(__pbssCOMMON+4)& (0+127)
  1864     0039  01F5               	clrf	(__pbssCOMMON+5)& (0+127)
  1865                           
  1866                           ; Clear objects allocated to BANK0
  1867     003A  3020               	movlw	low __pbssBANK0
  1868     003B  0084               	movwf	4
  1869     003C  3000               	movlw	high __pbssBANK0
  1870     003D  0085               	movwf	5
  1871     003E  3025               	movlw	37
  1872     003F  3184  24D8  3180   	fcall	clear_ram0
  1873     0042                     end_of_initialization:	
  1874                           ;End of C runtime variable initialization code
  1875                           
  1876     0042                     __end_of__initialization:
  1877     0042  107E               	bcf	int$flags,0	;clear compiler interrupt flag (level 1)
  1878     0043  0020               	movlb	0
  1879     0044  3183  2B3F         	ljmp	_main	;jump to C main() function
  1880                           
  1881                           	psect	bssCOMMON
  1882     0070                     __pbssCOMMON:
  1883     0070                     ECCP3_CallBack@rising_edge_time:
  1884     0070                     	ds	2
  1885     0072                     ECCP3_CallBack@falling_edge_time:
  1886     0072                     	ds	2
  1887     0074                     _D2:
  1888     0074                     	ds	1
  1889     0075                     _rx_data:
  1890     0075                     	ds	1
  1891                           
  1892                           	psect	bssBANK0
  1893     0020                     __pbssBANK0:
  1894     0020                     _data_buf:
  1895     0020                     	ds	11
  1896     002B                     _timer1ReloadVal:
  1897     002B                     	ds	2
  1898     002D                     TMR0_ISR@CountCallBack:
  1899     002D                     	ds	2
  1900     002F                     _TMR0_InterruptHandler:
  1901     002F                     	ds	2
  1902     0031                     ECCP3_CallBack@pluse_width_HI:
  1903     0031                     	ds	2
  1904     0033                     ECCP3_CallBack@pluse_width_LO:
  1905     0033                     	ds	2
  1906     0035                     _timer0ReloadVal:
  1907     0035                     	ds	1
  1908     0036                     ECCP3_CallBack@data_cnt:
  1909     0036                     	ds	1
  1910     0037                     ECCP3_CallBack@fHead:
  1911     0037                     	ds	1
  1912     0038                     ECCP3_CallBack@rise_edge_flag:
  1913     0038                     	ds	1
  1914     0039                     ECCP3_CallBack@diff_us:
  1915     0039                     	ds	1
  1916     003A                     ECCP3_CallBack@LO_us:
  1917     003A                     	ds	1
  1918     003B                     ECCP3_CallBack@HI_us:
  1919     003B                     	ds	1
  1920     003C                     _fLampSide:
  1921     003C                     	ds	1
  1922     003D                     _fException2:
  1923     003D                     	ds	1
  1924     003E                     _fException:
  1925     003E                     	ds	1
  1926     003F                     _T10MS_CNT:
  1927     003F                     	ds	1
  1928     0040                     _csFlag:
  1929     0040                     	ds	1
  1930     0041                     _D3:
  1931     0041                     	ds	1
  1932     0042                     _step:
  1933     0042                     	ds	1
  1934     0043                     _fFrame_OK:
  1935     0043                     	ds	1
  1936     0044                     _data_1byte_OK:
  1937     0044                     	ds	1
  1938                           
  1939                           	psect	dataBANK1
  1940     00A0                     __pdataBANK1:
  1941     00A0                     _CS:
  1942     00A0                     	ds	64
  1943                           
  1944                           	psect	inittext
  1945     04D2                     init_ram:
  1946     04D2  00FE               	movwf	btemp
  1947     04D3                     initloop:
  1948     04D3  0012               	moviw fsr0++
  1949     04D4  001E               	movwi fsr1++
  1950     04D5  0BFE               	decfsz	btemp,f
  1951     04D6  2CD3               	goto	initloop
  1952     04D7  3400               	retlw	0
  1953                           
  1954                           	psect	clrtext
  1955     04D8                     clear_ram0:	
  1956                           ;	Called with FSR0 containing the base address, and
  1957                           ;	WREG with the size to clear
  1958                           
  1959     04D8  0064               	clrwdt	;clear the watchdog before getting into this loop
  1960     04D9                     clrloop0:
  1961     04D9  0180               	clrf	0	;clear RAM location pointed to by FSR
  1962     04DA  3101               	addfsr 0,1
  1963     04DB  0B89               	decfsz	9,f	;Have we reached the end of clearing yet?
  1964     04DC  2CD9               	goto	clrloop0	;have we reached the end yet?
  1965     04DD  3400               	retlw	0	;all done for this memory range, return
  1966                           
  1967                           	psect	cstackCOMMON
  1968     0076                     __pcstackCOMMON:
  1969     0076                     ?_SYSTEM_Initialize:
  1970     0076                     ?_TMR0_ISR:	
  1971                           ; 1 bytes @ 0x0
  1972                           
  1973     0076                     ?_PIN_MANAGER_Initialize:	
  1974                           ; 1 bytes @ 0x0
  1975                           
  1976     0076                     ?_OSCILLATOR_Initialize:	
  1977                           ; 1 bytes @ 0x0
  1978                           
  1979     0076                     ?_WDT_Initialize:	
  1980                           ; 1 bytes @ 0x0
  1981                           
  1982     0076                     ?_TMR2_Initialize:	
  1983                           ; 1 bytes @ 0x0
  1984                           
  1985     0076                     ?_TMR1_Initialize:	
  1986                           ; 1 bytes @ 0x0
  1987                           
  1988     0076                     ?_TMR0_Initialize:	
  1989                           ; 1 bytes @ 0x0
  1990                           
  1991     0076                     ?_TMR0_DefaultInterruptHandler:	
  1992                           ; 1 bytes @ 0x0
  1993                           
  1994     0076                     ??_TMR0_DefaultInterruptHandler:	
  1995                           ; 1 bytes @ 0x0
  1996                           
  1997     0076                     ?_TMR0_CallBack:	
  1998                           ; 1 bytes @ 0x0
  1999                           
  2000     0076                     ?_Exception_handling:	
  2001                           ; 1 bytes @ 0x0
  2002                           
  2003     0076                     ?_DRL_ON:	
  2004                           ; 1 bytes @ 0x0
  2005                           
  2006     0076                     ?_LED_output:	
  2007                           ; 1 bytes @ 0x0
  2008                           
  2009     0076                     ?_check_input:	
  2010                           ; 1 bytes @ 0x0
  2011                           
  2012     0076                     ?_getFrameData:	
  2013                           ; 1 bytes @ 0x0
  2014                           
  2015     0076                     ?_ECCP3_CallBack:	
  2016                           ; 1 bytes @ 0x0
  2017                           
  2018     0076                     ?_TMR0_EvenHandler:	
  2019                           ; 1 bytes @ 0x0
  2020                           
  2021     0076                     ??_TMR0_EvenHandler:	
  2022                           ; 1 bytes @ 0x0
  2023                           
  2024     0076                     ?_ECCP3_Initialize:	
  2025                           ; 1 bytes @ 0x0
  2026                           
  2027     0076                     ?_ECCP3_CaptureISR:	
  2028                           ; 1 bytes @ 0x0
  2029                           
  2030     0076                     ?_EPWM1_Initialize:	
  2031                           ; 1 bytes @ 0x0
  2032                           
  2033     0076                     ?_INTERRUPT_InterruptManager:	
  2034                           ; 1 bytes @ 0x0
  2035                           
  2036     0076                     ?_main:	
  2037                           ; 1 bytes @ 0x0
  2038                           
  2039     0076                     ECCP3_CallBack@capturedValue:	
  2040                           ; 2 bytes @ 0x0
  2041                           
  2042                           
  2043                           ; 2 bytes @ 0x0
  2044     0076                     	ds	1
  2045     0077                     ??_TMR0_ISR:
  2046     0077                     ??_TMR0_CallBack:	
  2047                           ; 1 bytes @ 0x1
  2048                           
  2049                           
  2050                           ; 1 bytes @ 0x1
  2051     0077                     	ds	1
  2052     0078                     ??_ECCP3_CallBack:
  2053                           
  2054                           ; 1 bytes @ 0x2
  2055     0078                     	ds	2
  2056     007A                     ??_ECCP3_CaptureISR:
  2057     007A                     ECCP3_CaptureISR@module:	
  2058                           ; 1 bytes @ 0x4
  2059                           
  2060                           
  2061                           ; 2 bytes @ 0x4
  2062     007A                     	ds	2
  2063     007C                     ??_INTERRUPT_InterruptManager:
  2064                           
  2065                           	psect	cstackBANK0
  2066     0045                     __pcstackBANK0:	
  2067                           ; 1 bytes @ 0x6
  2068                           
  2069     0045                     ?_EPWM1_LoadDutyValue:
  2070     0045                     ?_TMR0_SetInterruptHandler:	
  2071                           ; 1 bytes @ 0x0
  2072                           
  2073     0045                     ??_PIN_MANAGER_Initialize:	
  2074                           ; 1 bytes @ 0x0
  2075                           
  2076     0045                     ??_OSCILLATOR_Initialize:	
  2077                           ; 1 bytes @ 0x0
  2078                           
  2079     0045                     ??_WDT_Initialize:	
  2080                           ; 1 bytes @ 0x0
  2081                           
  2082     0045                     ??_TMR2_Initialize:	
  2083                           ; 1 bytes @ 0x0
  2084                           
  2085     0045                     ??_TMR1_Initialize:	
  2086                           ; 1 bytes @ 0x0
  2087                           
  2088     0045                     ??_check_input:	
  2089                           ; 1 bytes @ 0x0
  2090                           
  2091     0045                     ??_getFrameData:	
  2092                           ; 1 bytes @ 0x0
  2093                           
  2094     0045                     ??_ECCP3_Initialize:	
  2095                           ; 1 bytes @ 0x0
  2096                           
  2097     0045                     ??_EPWM1_Initialize:	
  2098                           ; 1 bytes @ 0x0
  2099                           
  2100     0045                     EPWM1_LoadDutyValue@dutyValue:	
  2101                           ; 1 bytes @ 0x0
  2102                           
  2103     0045                     TMR0_SetInterruptHandler@InterruptHandler:	
  2104                           ; 2 bytes @ 0x0
  2105                           
  2106                           
  2107                           ; 2 bytes @ 0x0
  2108     0045                     	ds	2
  2109     0047                     ??_EPWM1_LoadDutyValue:
  2110     0047                     ??_SYSTEM_Initialize:	
  2111                           ; 1 bytes @ 0x2
  2112                           
  2113     0047                     ??_TMR0_SetInterruptHandler:	
  2114                           ; 1 bytes @ 0x2
  2115                           
  2116     0047                     ??_TMR0_Initialize:	
  2117                           ; 1 bytes @ 0x2
  2118                           
  2119                           
  2120                           ; 1 bytes @ 0x2
  2121     0047                     	ds	2
  2122     0049                     ??_Exception_handling:
  2123     0049                     ??_DRL_ON:	
  2124                           ; 1 bytes @ 0x4
  2125                           
  2126     0049                     DRL_ON@pwm_duty:	
  2127                           ; 1 bytes @ 0x4
  2128                           
  2129                           
  2130                           ; 2 bytes @ 0x4
  2131     0049                     	ds	2
  2132     004B                     ??_LED_output:
  2133                           
  2134                           ; 1 bytes @ 0x6
  2135     004B                     	ds	1
  2136     004C                     LED_output@crc8:
  2137                           
  2138                           ; 1 bytes @ 0x7
  2139     004C                     	ds	1
  2140     004D                     LED_output@i:
  2141                           
  2142                           ; 1 bytes @ 0x8
  2143     004D                     	ds	1
  2144     004E                     ??_main:
  2145                           
  2146                           	psect	maintext
  2147     033F                     __pmaintext:	
  2148                           ; 1 bytes @ 0x9
  2149 ;;
  2150 ;;Main: autosize = 0, tempsize = 0, incstack = 0, save=0
  2151 ;;
  2152 ;; *************** function _main *****************
  2153 ;; Defined at:
  2154 ;;		line 627 in file "D:\yiming\00work\TY1475_HIGH_R_V03.X\main.c"
  2155 ;; Parameters:    Size  Location     Type
  2156 ;;		None
  2157 ;; Auto vars:     Size  Location     Type
  2158 ;;		None
  2159 ;; Return value:  Size  Location     Type
  2160 ;;                  2  259[None  ] int 
  2161 ;; Registers used:
  2162 ;;		wreg, fsr0l, fsr0h, fsr1l, fsr1h, status,2, status,0, pclath, cstack
  2163 ;; Tracked objects:
  2164 ;;		On entry : B1F/0
  2165 ;;		On exit  : 0/0
  2166 ;;		Unchanged: 0/0
  2167 ;; Data sizes:     COMMON   BANK0   BANK1   BANK2   BANK3   BANK4   BANK5   BANK6
  2168 ;;      Params:         0       0       0       0       0       0       0       0
  2169 ;;      Locals:         0       0       0       0       0       0       0       0
  2170 ;;      Temps:          0       0       0       0       0       0       0       0
  2171 ;;      Totals:         0       0       0       0       0       0       0       0
  2172 ;;Total ram usage:        0 bytes
  2173 ;; Hardware stack levels required when called: 7
  2174 ;; This function calls:
  2175 ;;		_EPWM1_LoadDutyValue
  2176 ;;		_Exception_handling
  2177 ;;		_LED_output
  2178 ;;		_SYSTEM_Initialize
  2179 ;;		_TMR0_SetInterruptHandler
  2180 ;;		_check_input
  2181 ;;		_getFrameData
  2182 ;; This function is called by:
  2183 ;;		Startup code after reset
  2184 ;; This function uses a non-reentrant model
  2185 ;;
  2186                           
  2187     033F                     _main:	
  2188                           ;psect for function _main
  2189                           
  2190     033F                     l2294:	
  2191                           ;incstack = 0
  2192                           ; Regs used in _main: [wreg-fsr1h+status,2+status,0+pclath+cstack]
  2193                           
  2194                           
  2195                           ;D:\yiming\00work\TY1475_HIGH_R_V03.X\main.c: 629:   SYSTEM_Initialize();
  2196     033F  3184  242A  3183   	fcall	_SYSTEM_Initialize
  2197                           
  2198                           ;D:\yiming\00work\TY1475_HIGH_R_V03.X\main.c: 630:   TMR0_SetInterruptHandler(TMR0_EvenH
      +                          andler);
  2199     0342  306F               	movlw	low _TMR0_EvenHandler
  2200     0343  0020               	movlb	0	; select bank0
  2201     0344  00C5               	movwf	TMR0_SetInterruptHandler@InterruptHandler
  2202     0345  3004               	movlw	high _TMR0_EvenHandler
  2203     0346  00C6               	movwf	TMR0_SetInterruptHandler@InterruptHandler+1
  2204     0347  3184  24DE  3183   	fcall	_TMR0_SetInterruptHandler
  2205     034A                     l2296:
  2206                           
  2207                           ;D:\yiming\00work\TY1475_HIGH_R_V03.X\main.c: 636:   (INTCONbits.GIE = 1);
  2208     034A  178B               	bsf	11,7	;volatile
  2209     034B                     l2298:
  2210                           
  2211                           ;D:\yiming\00work\TY1475_HIGH_R_V03.X\main.c: 639:   (INTCONbits.PEIE = 1);
  2212     034B  170B               	bsf	11,6	;volatile
  2213     034C                     l2300:
  2214                           
  2215                           ;D:\yiming\00work\TY1475_HIGH_R_V03.X\main.c: 649:     if (PORTBbits.RB3 == 0)
  2216     034C  0020               	movlb	0	; select bank0
  2217     034D  198D               	btfsc	13,3	;volatile
  2218     034E  2B50               	goto	u2961
  2219     034F  2B51               	goto	u2960
  2220     0350                     u2961:
  2221     0350  2B53               	goto	l261
  2222     0351                     u2960:
  2223     0351                     l2302:
  2224                           
  2225                           ;D:\yiming\00work\TY1475_HIGH_R_V03.X\main.c: 650:       fLampSide = 0;
  2226     0351  01BC               	clrf	_fLampSide
  2227     0352  2B55               	goto	l2304
  2228     0353                     l261:	
  2229                           ;D:\yiming\00work\TY1475_HIGH_R_V03.X\main.c: 651:     else
  2230                           
  2231                           
  2232                           ;D:\yiming\00work\TY1475_HIGH_R_V03.X\main.c: 652:       fLampSide = 1;
  2233     0353  01BC               	clrf	_fLampSide
  2234     0354  0ABC               	incf	_fLampSide,f
  2235     0355                     l2304:
  2236                           
  2237                           ;D:\yiming\00work\TY1475_HIGH_R_V03.X\main.c: 654:     getFrameData();
  2238     0355  3182  228E  3183   	fcall	_getFrameData
  2239     0358                     l2306:
  2240                           
  2241                           ;D:\yiming\00work\TY1475_HIGH_R_V03.X\main.c: 655:     check_input();
  2242     0358  3183  237F  3183   	fcall	_check_input
  2243     035B                     l2308:
  2244                           
  2245                           ;D:\yiming\00work\TY1475_HIGH_R_V03.X\main.c: 657:     Exception_handling();
  2246     035B  3183  23B0  3183   	fcall	_Exception_handling
  2247     035E                     l2310:
  2248                           
  2249                           ;D:\yiming\00work\TY1475_HIGH_R_V03.X\main.c: 658:     if (fException2 == 0) {
  2250     035E  0020               	movlb	0	; select bank0
  2251     035F  083D               	movf	_fException2,w
  2252     0360  1D03               	btfss	3,2
  2253     0361  2B63               	goto	u2971
  2254     0362  2B64               	goto	u2970
  2255     0363                     u2971:
  2256     0363  2B6F               	goto	l2318
  2257     0364                     u2970:
  2258     0364                     l2312:
  2259                           
  2260                           ;D:\yiming\00work\TY1475_HIGH_R_V03.X\main.c: 659:       if (fException == 1) {
  2261     0364  033E               	decf	_fException,w
  2262     0365  1D03               	btfss	3,2
  2263     0366  2B68               	goto	u2981
  2264     0367  2B69               	goto	u2980
  2265     0368                     u2981:
  2266     0368  2B6B               	goto	l2316
  2267     0369                     u2980:
  2268     0369                     l2314:
  2269                           
  2270                           ;D:\yiming\00work\TY1475_HIGH_R_V03.X\main.c: 661:         fException = 0;
  2271     0369  01BE               	clrf	_fException
  2272                           
  2273                           ;D:\yiming\00work\TY1475_HIGH_R_V03.X\main.c: 662:       } else
  2274     036A  2B4C               	goto	l2300
  2275     036B                     l2316:
  2276                           
  2277                           ;D:\yiming\00work\TY1475_HIGH_R_V03.X\main.c: 663:         LED_output();
  2278     036B  3180  2046  3183   	fcall	_LED_output
  2279     036E  2B4C               	goto	l2300
  2280     036F                     l2318:
  2281                           
  2282                           ;D:\yiming\00work\TY1475_HIGH_R_V03.X\main.c: 666:       fException2 = 0;
  2283     036F  01BD               	clrf	_fException2
  2284     0370                     l2320:
  2285     0370  0022               	movlb	2	; select bank2
  2286     0371  158C               	bsf	12,3	;volatile
  2287     0372                     l2322:
  2288     0372  100C               	bcf	12,0	;volatile
  2289     0373                     l2324:
  2290     0373  148E               	bsf	14,1	;volatile
  2291     0374                     l2326:
  2292                           
  2293                           ;D:\yiming\00work\TY1475_HIGH_R_V03.X\main.c: 670:       EPWM1_LoadDutyValue((50));
  2294     0374  3032               	movlw	50
  2295     0375  0020               	movlb	0	; select bank0
  2296     0376  00C5               	movwf	EPWM1_LoadDutyValue@dutyValue
  2297     0377  3000               	movlw	0
  2298     0378  00C6               	movwf	EPWM1_LoadDutyValue@dutyValue+1
  2299     0379  3184  240E  3183   	fcall	_EPWM1_LoadDutyValue
  2300     037C  2B4C               	goto	l2300
  2301     037D  3180  2826         	ljmp	start
  2302     037F                     __end_of_main:
  2303                           
  2304                           	psect	text1
  2305     028E                     __ptext1:	
  2306 ;; *************** function _getFrameData *****************
  2307 ;; Defined at:
  2308 ;;		line 476 in file "D:\yiming\00work\TY1475_HIGH_R_V03.X\main.c"
  2309 ;; Parameters:    Size  Location     Type
  2310 ;;		None
  2311 ;; Auto vars:     Size  Location     Type
  2312 ;;		None
  2313 ;; Return value:  Size  Location     Type
  2314 ;;                  1    wreg      void 
  2315 ;; Registers used:
  2316 ;;		wreg, fsr0l, fsr0h, status,2, status,0
  2317 ;; Tracked objects:
  2318 ;;		On entry : 0/0
  2319 ;;		On exit  : 0/0
  2320 ;;		Unchanged: 0/0
  2321 ;; Data sizes:     COMMON   BANK0   BANK1   BANK2   BANK3   BANK4   BANK5   BANK6
  2322 ;;      Params:         0       0       0       0       0       0       0       0
  2323 ;;      Locals:         0       0       0       0       0       0       0       0
  2324 ;;      Temps:          0       0       0       0       0       0       0       0
  2325 ;;      Totals:         0       0       0       0       0       0       0       0
  2326 ;;Total ram usage:        0 bytes
  2327 ;; Hardware stack levels used: 1
  2328 ;; Hardware stack levels required when called: 4
  2329 ;; This function calls:
  2330 ;;		Nothing
  2331 ;; This function is called by:
  2332 ;;		_main
  2333 ;; This function uses a non-reentrant model
  2334 ;;
  2335                           
  2336     028E                     _getFrameData:	
  2337                           ;psect for function _getFrameData
  2338                           
  2339     028E                     l2246:	
  2340                           ;incstack = 0
  2341                           ; Regs used in _getFrameData: [wreg-fsr0h+status,2+status,0]
  2342                           
  2343                           
  2344                           ;D:\yiming\00work\TY1475_HIGH_R_V03.X\main.c: 477:   if (data_1byte_OK == 1) {
  2345     028E  0020               	movlb	0	; select bank0
  2346     028F  0344               	decf	_data_1byte_OK,w	;volatile
  2347     0290  1D03               	btfss	3,2
  2348     0291  2A93               	goto	u2931
  2349     0292  2A94               	goto	u2930
  2350     0293                     u2931:
  2351     0293  2AFE               	goto	l204
  2352     0294                     u2930:
  2353     0294                     l2248:
  2354                           
  2355                           ;D:\yiming\00work\TY1475_HIGH_R_V03.X\main.c: 478:     data_1byte_OK = 0;
  2356     0294  01C4               	clrf	_data_1byte_OK	;volatile
  2357                           
  2358                           ;D:\yiming\00work\TY1475_HIGH_R_V03.X\main.c: 481:     switch (step) {
  2359     0295  2ADB               	goto	l2290
  2360     0296                     l2250:
  2361                           
  2362                           ;D:\yiming\00work\TY1475_HIGH_R_V03.X\main.c: 483:       if (rx_data == 0xC8) {
  2363     0296  30C8               	movlw	200
  2364     0297  0675               	xorwf	_rx_data,w
  2365     0298  1D03               	btfss	3,2
  2366     0299  2A9B               	goto	u2941
  2367     029A  2A9C               	goto	u2940
  2368     029B                     u2941:
  2369     029B  2AA1               	goto	l2256
  2370     029C                     u2940:
  2371     029C                     l2252:
  2372                           
  2373                           ;D:\yiming\00work\TY1475_HIGH_R_V03.X\main.c: 484:         step = 1;
  2374     029C  01C2               	clrf	_step
  2375     029D  0AC2               	incf	_step,f
  2376     029E                     l2254:
  2377                           
  2378                           ;D:\yiming\00work\TY1475_HIGH_R_V03.X\main.c: 485:         data_buf[0] = rx_data;
  2379     029E  0875               	movf	_rx_data,w
  2380     029F  00A0               	movwf	_data_buf
  2381                           
  2382                           ;D:\yiming\00work\TY1475_HIGH_R_V03.X\main.c: 486:       } else {
  2383     02A0  2AFE               	goto	l204
  2384     02A1                     l2256:
  2385                           
  2386                           ;D:\yiming\00work\TY1475_HIGH_R_V03.X\main.c: 487:         step = 0;
  2387     02A1  01C2               	clrf	_step
  2388     02A2  2AFE               	goto	l204
  2389     02A3                     l2258:
  2390                           
  2391                           ;D:\yiming\00work\TY1475_HIGH_R_V03.X\main.c: 491:       if (rx_data == 0x8B) {
  2392     02A3  308B               	movlw	139
  2393     02A4  0675               	xorwf	_rx_data,w
  2394     02A5  1D03               	btfss	3,2
  2395     02A6  2AA8               	goto	u2951
  2396     02A7  2AA9               	goto	u2950
  2397     02A8                     u2951:
  2398     02A8  2AA1               	goto	l2256
  2399     02A9                     u2950:
  2400     02A9                     l2260:
  2401                           
  2402                           ;D:\yiming\00work\TY1475_HIGH_R_V03.X\main.c: 492:         data_buf[1] = rx_data;
  2403     02A9  0875               	movf	_rx_data,w
  2404     02AA  00A1               	movwf	_data_buf+1
  2405                           
  2406                           ;D:\yiming\00work\TY1475_HIGH_R_V03.X\main.c: 493:         step = 2;
  2407     02AB  3002               	movlw	2
  2408     02AC  00C2               	movwf	_step
  2409                           
  2410                           ;D:\yiming\00work\TY1475_HIGH_R_V03.X\main.c: 494:       } else {
  2411     02AD  2AFE               	goto	l204
  2412     02AE                     l2264:
  2413                           
  2414                           ;D:\yiming\00work\TY1475_HIGH_R_V03.X\main.c: 499:       data_buf[2] = rx_data;
  2415     02AE  0875               	movf	_rx_data,w
  2416     02AF  00A2               	movwf	_data_buf+2
  2417                           
  2418                           ;D:\yiming\00work\TY1475_HIGH_R_V03.X\main.c: 500:       step = 3;
  2419     02B0  3003               	movlw	3
  2420     02B1  00C2               	movwf	_step
  2421                           
  2422                           ;D:\yiming\00work\TY1475_HIGH_R_V03.X\main.c: 501:       break;
  2423     02B2  2AFE               	goto	l204
  2424     02B3                     l2266:
  2425                           
  2426                           ;D:\yiming\00work\TY1475_HIGH_R_V03.X\main.c: 503:       data_buf[3] = rx_data;
  2427     02B3  0875               	movf	_rx_data,w
  2428     02B4  00A3               	movwf	_data_buf+3
  2429                           
  2430                           ;D:\yiming\00work\TY1475_HIGH_R_V03.X\main.c: 504:       step = 4;
  2431     02B5  3004               	movlw	4
  2432     02B6  00C2               	movwf	_step
  2433                           
  2434                           ;D:\yiming\00work\TY1475_HIGH_R_V03.X\main.c: 505:       break;
  2435     02B7  2AFE               	goto	l204
  2436     02B8                     l2268:
  2437                           
  2438                           ;D:\yiming\00work\TY1475_HIGH_R_V03.X\main.c: 507:       data_buf[4] = rx_data;
  2439     02B8  0875               	movf	_rx_data,w
  2440     02B9  00A4               	movwf	_data_buf+4
  2441                           
  2442                           ;D:\yiming\00work\TY1475_HIGH_R_V03.X\main.c: 508:       step = 5;
  2443     02BA  3005               	movlw	5
  2444     02BB  00C2               	movwf	_step
  2445                           
  2446                           ;D:\yiming\00work\TY1475_HIGH_R_V03.X\main.c: 509:       break;
  2447     02BC  2AFE               	goto	l204
  2448     02BD                     l2270:
  2449                           
  2450                           ;D:\yiming\00work\TY1475_HIGH_R_V03.X\main.c: 511:       data_buf[5] = rx_data;
  2451     02BD  0875               	movf	_rx_data,w
  2452     02BE  00A5               	movwf	_data_buf+5
  2453                           
  2454                           ;D:\yiming\00work\TY1475_HIGH_R_V03.X\main.c: 512:       step = 6;
  2455     02BF  3006               	movlw	6
  2456     02C0  00C2               	movwf	_step
  2457                           
  2458                           ;D:\yiming\00work\TY1475_HIGH_R_V03.X\main.c: 513:       break;
  2459     02C1  2AFE               	goto	l204
  2460     02C2                     l2272:
  2461                           
  2462                           ;D:\yiming\00work\TY1475_HIGH_R_V03.X\main.c: 515:       data_buf[6] = rx_data;
  2463     02C2  0875               	movf	_rx_data,w
  2464     02C3  00A6               	movwf	_data_buf+6
  2465                           
  2466                           ;D:\yiming\00work\TY1475_HIGH_R_V03.X\main.c: 516:       step = 7;
  2467     02C4  3007               	movlw	7
  2468     02C5  00C2               	movwf	_step
  2469                           
  2470                           ;D:\yiming\00work\TY1475_HIGH_R_V03.X\main.c: 517:       break;
  2471     02C6  2AFE               	goto	l204
  2472     02C7                     l2274:
  2473                           
  2474                           ;D:\yiming\00work\TY1475_HIGH_R_V03.X\main.c: 519:       data_buf[7] = rx_data;
  2475     02C7  0875               	movf	_rx_data,w
  2476     02C8  00A7               	movwf	_data_buf+7
  2477                           
  2478                           ;D:\yiming\00work\TY1475_HIGH_R_V03.X\main.c: 520:       step = 8;
  2479     02C9  3008               	movlw	8
  2480     02CA  00C2               	movwf	_step
  2481                           
  2482                           ;D:\yiming\00work\TY1475_HIGH_R_V03.X\main.c: 521:       break;
  2483     02CB  2AFE               	goto	l204
  2484     02CC                     l2276:
  2485                           
  2486                           ;D:\yiming\00work\TY1475_HIGH_R_V03.X\main.c: 523:       data_buf[8] = rx_data;
  2487     02CC  0875               	movf	_rx_data,w
  2488     02CD  00A8               	movwf	_data_buf+8
  2489                           
  2490                           ;D:\yiming\00work\TY1475_HIGH_R_V03.X\main.c: 524:       step = 9;
  2491     02CE  3009               	movlw	9
  2492     02CF  00C2               	movwf	_step
  2493                           
  2494                           ;D:\yiming\00work\TY1475_HIGH_R_V03.X\main.c: 525:       break;
  2495     02D0  2AFE               	goto	l204
  2496     02D1                     l2278:
  2497                           
  2498                           ;D:\yiming\00work\TY1475_HIGH_R_V03.X\main.c: 527:       data_buf[9] = rx_data;
  2499     02D1  0875               	movf	_rx_data,w
  2500     02D2  00A9               	movwf	_data_buf+9
  2501                           
  2502                           ;D:\yiming\00work\TY1475_HIGH_R_V03.X\main.c: 528:       step = 10;
  2503     02D3  300A               	movlw	10
  2504     02D4  00C2               	movwf	_step
  2505                           
  2506                           ;D:\yiming\00work\TY1475_HIGH_R_V03.X\main.c: 529:       break;
  2507     02D5  2AFE               	goto	l204
  2508     02D6                     l2280:
  2509                           
  2510                           ;D:\yiming\00work\TY1475_HIGH_R_V03.X\main.c: 531:       data_buf[10] = rx_data;
  2511     02D6  0875               	movf	_rx_data,w
  2512     02D7  00AA               	movwf	_data_buf+10
  2513     02D8                     l2282:
  2514                           
  2515                           ;D:\yiming\00work\TY1475_HIGH_R_V03.X\main.c: 532:       fFrame_OK = 1;
  2516     02D8  01C3               	clrf	_fFrame_OK
  2517     02D9  0AC3               	incf	_fFrame_OK,f
  2518     02DA  2AA1               	goto	l2256
  2519     02DB                     l2290:
  2520     02DB  0842               	movf	_step,w
  2521                           
  2522                           ; Switch size 1, requested type "simple"
  2523                           ; Number of cases is 11, Range of values is 0 to 10
  2524                           ; switch strategies available:
  2525                           ; Name         Instructions Cycles
  2526                           ; direct_byte           28     6 (fixed)
  2527                           ; simple_byte           34    18 (average)
  2528                           ; jumptable            260     6 (fixed)
  2529                           ;	Chosen strategy is simple_byte
  2530     02DC  3A00               	xorlw	0	; case 0
  2531     02DD  1903               	skipnz
  2532     02DE  2A96               	goto	l2250
  2533     02DF  3A01               	xorlw	1	; case 1
  2534     02E0  1903               	skipnz
  2535     02E1  2AA3               	goto	l2258
  2536     02E2  3A03               	xorlw	3	; case 2
  2537     02E3  1903               	skipnz
  2538     02E4  2AAE               	goto	l2264
  2539     02E5  3A01               	xorlw	1	; case 3
  2540     02E6  1903               	skipnz
  2541     02E7  2AB3               	goto	l2266
  2542     02E8  3A07               	xorlw	7	; case 4
  2543     02E9  1903               	skipnz
  2544     02EA  2AB8               	goto	l2268
  2545     02EB  3A01               	xorlw	1	; case 5
  2546     02EC  1903               	skipnz
  2547     02ED  2ABD               	goto	l2270
  2548     02EE  3A03               	xorlw	3	; case 6
  2549     02EF  1903               	skipnz
  2550     02F0  2AC2               	goto	l2272
  2551     02F1  3A01               	xorlw	1	; case 7
  2552     02F2  1903               	skipnz
  2553     02F3  2AC7               	goto	l2274
  2554     02F4  3A0F               	xorlw	15	; case 8
  2555     02F5  1903               	skipnz
  2556     02F6  2ACC               	goto	l2276
  2557     02F7  3A01               	xorlw	1	; case 9
  2558     02F8  1903               	skipnz
  2559     02F9  2AD1               	goto	l2278
  2560     02FA  3A03               	xorlw	3	; case 10
  2561     02FB  1903               	skipnz
  2562     02FC  2AD6               	goto	l2280
  2563     02FD  2AA1               	goto	l2256
  2564     02FE                     l204:
  2565     02FE  0008               	return
  2566     02FF                     __end_of_getFrameData:
  2567                           
  2568                           	psect	text2
  2569     037F                     __ptext2:	
  2570 ;; *************** function _check_input *****************
  2571 ;; Defined at:
  2572 ;;		line 434 in file "D:\yiming\00work\TY1475_HIGH_R_V03.X\main.c"
  2573 ;; Parameters:    Size  Location     Type
  2574 ;;		None
  2575 ;; Auto vars:     Size  Location     Type
  2576 ;;		None
  2577 ;; Return value:  Size  Location     Type
  2578 ;;                  1    wreg      void 
  2579 ;; Registers used:
  2580 ;;		wreg, status,2
  2581 ;; Tracked objects:
  2582 ;;		On entry : 0/0
  2583 ;;		On exit  : 0/0
  2584 ;;		Unchanged: 0/0
  2585 ;; Data sizes:     COMMON   BANK0   BANK1   BANK2   BANK3   BANK4   BANK5   BANK6
  2586 ;;      Params:         0       0       0       0       0       0       0       0
  2587 ;;      Locals:         0       0       0       0       0       0       0       0
  2588 ;;      Temps:          0       0       0       0       0       0       0       0
  2589 ;;      Totals:         0       0       0       0       0       0       0       0
  2590 ;;Total ram usage:        0 bytes
  2591 ;; Hardware stack levels used: 1
  2592 ;; Hardware stack levels required when called: 4
  2593 ;; This function calls:
  2594 ;;		Nothing
  2595 ;; This function is called by:
  2596 ;;		_main
  2597 ;; This function uses a non-reentrant model
  2598 ;;
  2599                           
  2600     037F                     _check_input:	
  2601                           ;psect for function _check_input
  2602                           
  2603     037F                     l2228:	
  2604                           ;incstack = 0
  2605                           ; Regs used in _check_input: [wreg+status,2]
  2606                           
  2607                           
  2608                           ;D:\yiming\00work\TY1475_HIGH_R_V03.X\main.c: 435:   D2.Byte = data_buf[2];
  2609     037F  0020               	movlb	0	; select bank0
  2610     0380  0822               	movf	_data_buf+2,w
  2611     0381  00F4               	movwf	_D2
  2612                           
  2613                           ;D:\yiming\00work\TY1475_HIGH_R_V03.X\main.c: 436:   D3.Byte = data_buf[3];
  2614     0382  0823               	movf	_data_buf+3,w
  2615     0383  00C1               	movwf	_D3
  2616     0384                     l2230:
  2617                           
  2618                           ;D:\yiming\00work\TY1475_HIGH_R_V03.X\main.c: 437:   csFlag.Byte = 0;
  2619     0384  01C0               	clrf	_csFlag
  2620     0385                     l2232:
  2621                           
  2622                           ;D:\yiming\00work\TY1475_HIGH_R_V03.X\main.c: 440:   if (D2.RunLight == 1)
  2623     0385  1D74               	btfss	_D2,2
  2624     0386  2B88               	goto	u2871
  2625     0387  2B89               	goto	u2870
  2626     0388                     u2871:
  2627     0388  2B8B               	goto	l170
  2628     0389                     u2870:
  2629     0389                     l2234:
  2630                           
  2631                           ;D:\yiming\00work\TY1475_HIGH_R_V03.X\main.c: 441:     csFlag.RunLight = 1;
  2632     0389  16C0               	bsf	_csFlag,5
  2633     038A  2B8C               	goto	l171
  2634     038B                     l170:	
  2635                           ;D:\yiming\00work\TY1475_HIGH_R_V03.X\main.c: 442:   else
  2636                           
  2637                           
  2638                           ;D:\yiming\00work\TY1475_HIGH_R_V03.X\main.c: 443:     csFlag.RunLight = 0;
  2639     038B  12C0               	bcf	_csFlag,5
  2640     038C                     l171:
  2641                           
  2642                           ;D:\yiming\00work\TY1475_HIGH_R_V03.X\main.c: 446:   if (D2.DRL == 1)
  2643     038C  1DF4               	btfss	_D2,3
  2644     038D  2B8F               	goto	u2881
  2645     038E  2B90               	goto	u2880
  2646     038F                     u2881:
  2647     038F  2B92               	goto	l172
  2648     0390                     u2880:
  2649     0390                     l2236:
  2650                           
  2651                           ;D:\yiming\00work\TY1475_HIGH_R_V03.X\main.c: 447:     csFlag.DRL = 1;
  2652     0390  1640               	bsf	_csFlag,4
  2653     0391  2B93               	goto	l173
  2654     0392                     l172:	
  2655                           ;D:\yiming\00work\TY1475_HIGH_R_V03.X\main.c: 448:   else
  2656                           
  2657                           
  2658                           ;D:\yiming\00work\TY1475_HIGH_R_V03.X\main.c: 449:     csFlag.DRL = 0;
  2659     0392  1240               	bcf	_csFlag,4
  2660     0393                     l173:
  2661                           
  2662                           ;D:\yiming\00work\TY1475_HIGH_R_V03.X\main.c: 452:   if (D2.LoBeam == 1)
  2663     0393  1E74               	btfss	_D2,4
  2664     0394  2B96               	goto	u2891
  2665     0395  2B97               	goto	u2890
  2666     0396                     u2891:
  2667     0396  2B99               	goto	l174
  2668     0397                     u2890:
  2669     0397                     l2238:
  2670                           
  2671                           ;D:\yiming\00work\TY1475_HIGH_R_V03.X\main.c: 453:     csFlag.LoBeam = 1;
  2672     0397  15C0               	bsf	_csFlag,3
  2673     0398  2B9A               	goto	l175
  2674     0399                     l174:	
  2675                           ;D:\yiming\00work\TY1475_HIGH_R_V03.X\main.c: 454:   else
  2676                           
  2677                           
  2678                           ;D:\yiming\00work\TY1475_HIGH_R_V03.X\main.c: 455:     csFlag.LoBeam = 0;
  2679     0399  11C0               	bcf	_csFlag,3
  2680     039A                     l175:
  2681                           
  2682                           ;D:\yiming\00work\TY1475_HIGH_R_V03.X\main.c: 458:   if (D2.HiBeam == 1)
  2683     039A  1EF4               	btfss	_D2,5
  2684     039B  2B9D               	goto	u2901
  2685     039C  2B9E               	goto	u2900
  2686     039D                     u2901:
  2687     039D  2BA0               	goto	l176
  2688     039E                     u2900:
  2689     039E                     l2240:
  2690                           
  2691                           ;D:\yiming\00work\TY1475_HIGH_R_V03.X\main.c: 459:     csFlag.HiBeam = 1;
  2692     039E  1540               	bsf	_csFlag,2
  2693     039F  2BA1               	goto	l177
  2694     03A0                     l176:	
  2695                           ;D:\yiming\00work\TY1475_HIGH_R_V03.X\main.c: 460:   else
  2696                           
  2697                           
  2698                           ;D:\yiming\00work\TY1475_HIGH_R_V03.X\main.c: 461:     csFlag.HiBeam = 0;
  2699     03A0  1140               	bcf	_csFlag,2
  2700     03A1                     l177:
  2701                           
  2702                           ;D:\yiming\00work\TY1475_HIGH_R_V03.X\main.c: 464:   if (D3.turnLight_L == 1)
  2703     03A1  1EC1               	btfss	_D3,5
  2704     03A2  2BA4               	goto	u2911
  2705     03A3  2BA5               	goto	u2910
  2706     03A4                     u2911:
  2707     03A4  2BA7               	goto	l178
  2708     03A5                     u2910:
  2709     03A5                     l2242:
  2710                           
  2711                           ;D:\yiming\00work\TY1475_HIGH_R_V03.X\main.c: 465:     csFlag.turnLight_L = 1;
  2712     03A5  14C0               	bsf	_csFlag,1
  2713     03A6  2BA8               	goto	l179
  2714     03A7                     l178:	
  2715                           ;D:\yiming\00work\TY1475_HIGH_R_V03.X\main.c: 466:   else
  2716                           
  2717                           
  2718                           ;D:\yiming\00work\TY1475_HIGH_R_V03.X\main.c: 467:     csFlag.turnLight_L = 0;
  2719     03A7  10C0               	bcf	_csFlag,1
  2720     03A8                     l179:
  2721                           
  2722                           ;D:\yiming\00work\TY1475_HIGH_R_V03.X\main.c: 470:   if (D3.turnLight_R == 1)
  2723     03A8  1F41               	btfss	_D3,6
  2724     03A9  2BAB               	goto	u2921
  2725     03AA  2BAC               	goto	u2920
  2726     03AB                     u2921:
  2727     03AB  2BAE               	goto	l180
  2728     03AC                     u2920:
  2729     03AC                     l2244:
  2730                           
  2731                           ;D:\yiming\00work\TY1475_HIGH_R_V03.X\main.c: 471:     csFlag.turnLight_R = 1;
  2732     03AC  1440               	bsf	_csFlag,0
  2733     03AD  2BAF               	goto	l182
  2734     03AE                     l180:	
  2735                           ;D:\yiming\00work\TY1475_HIGH_R_V03.X\main.c: 472:   else
  2736                           
  2737                           
  2738                           ;D:\yiming\00work\TY1475_HIGH_R_V03.X\main.c: 473:     csFlag.turnLight_R = 0;
  2739     03AE  1040               	bcf	_csFlag,0
  2740     03AF                     l182:
  2741     03AF  0008               	return
  2742     03B0                     __end_of_check_input:
  2743                           
  2744                           	psect	text3
  2745     042A                     __ptext3:	
  2746 ;; *************** function _SYSTEM_Initialize *****************
  2747 ;; Defined at:
  2748 ;;		line 50 in file "D:\yiming\00work\TY1475_HIGH_R_V03.X\mcc_generated_files\mcc.c"
  2749 ;; Parameters:    Size  Location     Type
  2750 ;;		None
  2751 ;; Auto vars:     Size  Location     Type
  2752 ;;		None
  2753 ;; Return value:  Size  Location     Type
  2754 ;;                  1    wreg      void 
  2755 ;; Registers used:
  2756 ;;		wreg, status,2, status,0, pclath, cstack
  2757 ;; Tracked objects:
  2758 ;;		On entry : 0/0
  2759 ;;		On exit  : 0/0
  2760 ;;		Unchanged: 0/0
  2761 ;; Data sizes:     COMMON   BANK0   BANK1   BANK2   BANK3   BANK4   BANK5   BANK6
  2762 ;;      Params:         0       0       0       0       0       0       0       0
  2763 ;;      Locals:         0       0       0       0       0       0       0       0
  2764 ;;      Temps:          0       0       0       0       0       0       0       0
  2765 ;;      Totals:         0       0       0       0       0       0       0       0
  2766 ;;Total ram usage:        0 bytes
  2767 ;; Hardware stack levels used: 1
  2768 ;; Hardware stack levels required when called: 6
  2769 ;; This function calls:
  2770 ;;		_ECCP3_Initialize
  2771 ;;		_EPWM1_Initialize
  2772 ;;		_OSCILLATOR_Initialize
  2773 ;;		_PIN_MANAGER_Initialize
  2774 ;;		_TMR0_Initialize
  2775 ;;		_TMR1_Initialize
  2776 ;;		_TMR2_Initialize
  2777 ;;		_WDT_Initialize
  2778 ;; This function is called by:
  2779 ;;		_main
  2780 ;; This function uses a non-reentrant model
  2781 ;;
  2782                           
  2783     042A                     _SYSTEM_Initialize:	
  2784                           ;psect for function _SYSTEM_Initialize
  2785                           
  2786     042A                     l2292:	
  2787                           ;incstack = 0
  2788                           ; Regs used in _SYSTEM_Initialize: [wreg+status,2+status,0+pclath+cstack]
  2789                           
  2790                           
  2791                           ;D:\yiming\00work\TY1475_HIGH_R_V03.X\mcc_generated_files\mcc.c: 53:     PIN_MANAGER_Ini
      +                          tialize();
  2792     042A  3183  23D2  3184   	fcall	_PIN_MANAGER_Initialize
  2793                           
  2794                           ;D:\yiming\00work\TY1475_HIGH_R_V03.X\mcc_generated_files\mcc.c: 54:     OSCILLATOR_Init
      +                          ialize();
  2795     042D  3184  24B4  3184   	fcall	_OSCILLATOR_Initialize
  2796                           
  2797                           ;D:\yiming\00work\TY1475_HIGH_R_V03.X\mcc_generated_files\mcc.c: 55:     WDT_Initialize(
      +                          );
  2798     0430  3184  24E4  3184   	fcall	_WDT_Initialize
  2799                           
  2800                           ;D:\yiming\00work\TY1475_HIGH_R_V03.X\mcc_generated_files\mcc.c: 56:     EPWM1_Initializ
      +                          e();
  2801     0433  3184  249A  3184   	fcall	_EPWM1_Initialize
  2802                           
  2803                           ;D:\yiming\00work\TY1475_HIGH_R_V03.X\mcc_generated_files\mcc.c: 57:     TMR2_Initialize
      +                          ();
  2804     0436  3184  24CA  3184   	fcall	_TMR2_Initialize
  2805                           
  2806                           ;D:\yiming\00work\TY1475_HIGH_R_V03.X\mcc_generated_files\mcc.c: 58:     ECCP3_Initializ
      +                          e();
  2807     0439  3184  24C0  3184   	fcall	_ECCP3_Initialize
  2808                           
  2809                           ;D:\yiming\00work\TY1475_HIGH_R_V03.X\mcc_generated_files\mcc.c: 59:     TMR1_Initialize
      +                          ();
  2810     043C  3184  248D  3184   	fcall	_TMR1_Initialize
  2811                           
  2812                           ;D:\yiming\00work\TY1475_HIGH_R_V03.X\mcc_generated_files\mcc.c: 60:     TMR0_Initialize
      +                          ();
  2813     043F  3184  245B  3184   	fcall	_TMR0_Initialize
  2814     0442                     l363:
  2815     0442  0008               	return
  2816     0443                     __end_of_SYSTEM_Initialize:
  2817                           
  2818                           	psect	text4
  2819     04E4                     __ptext4:	
  2820 ;; *************** function _WDT_Initialize *****************
  2821 ;; Defined at:
  2822 ;;		line 77 in file "D:\yiming\00work\TY1475_HIGH_R_V03.X\mcc_generated_files\mcc.c"
  2823 ;; Parameters:    Size  Location     Type
  2824 ;;		None
  2825 ;; Auto vars:     Size  Location     Type
  2826 ;;		None
  2827 ;; Return value:  Size  Location     Type
  2828 ;;                  1    wreg      void 
  2829 ;; Registers used:
  2830 ;;		wreg
  2831 ;; Tracked objects:
  2832 ;;		On entry : 0/0
  2833 ;;		On exit  : 0/0
  2834 ;;		Unchanged: 0/0
  2835 ;; Data sizes:     COMMON   BANK0   BANK1   BANK2   BANK3   BANK4   BANK5   BANK6
  2836 ;;      Params:         0       0       0       0       0       0       0       0
  2837 ;;      Locals:         0       0       0       0       0       0       0       0
  2838 ;;      Temps:          0       0       0       0       0       0       0       0
  2839 ;;      Totals:         0       0       0       0       0       0       0       0
  2840 ;;Total ram usage:        0 bytes
  2841 ;; Hardware stack levels used: 1
  2842 ;; Hardware stack levels required when called: 4
  2843 ;; This function calls:
  2844 ;;		Nothing
  2845 ;; This function is called by:
  2846 ;;		_SYSTEM_Initialize
  2847 ;; This function uses a non-reentrant model
  2848 ;;
  2849                           
  2850     04E4                     _WDT_Initialize:	
  2851                           ;psect for function _WDT_Initialize
  2852                           
  2853     04E4                     l2038:	
  2854                           ;incstack = 0
  2855                           ; Regs used in _WDT_Initialize: [wreg]
  2856                           
  2857                           
  2858                           ;D:\yiming\00work\TY1475_HIGH_R_V03.X\mcc_generated_files\mcc.c: 80:     WDTCON = 0x16;
  2859     04E4  3016               	movlw	22
  2860     04E5  0021               	movlb	1	; select bank1
  2861     04E6  0097               	movwf	23	;volatile
  2862     04E7                     l372:
  2863     04E7  0008               	return
  2864     04E8                     __end_of_WDT_Initialize:
  2865                           
  2866                           	psect	text5
  2867     04CA                     __ptext5:	
  2868 ;; *************** function _TMR2_Initialize *****************
  2869 ;; Defined at:
  2870 ;;		line 62 in file "D:\yiming\00work\TY1475_HIGH_R_V03.X\mcc_generated_files\tmr2.c"
  2871 ;; Parameters:    Size  Location     Type
  2872 ;;		None
  2873 ;; Auto vars:     Size  Location     Type
  2874 ;;		None
  2875 ;; Return value:  Size  Location     Type
  2876 ;;                  1    wreg      void 
  2877 ;; Registers used:
  2878 ;;		wreg, status,2
  2879 ;; Tracked objects:
  2880 ;;		On entry : 0/0
  2881 ;;		On exit  : 0/0
  2882 ;;		Unchanged: 0/0
  2883 ;; Data sizes:     COMMON   BANK0   BANK1   BANK2   BANK3   BANK4   BANK5   BANK6
  2884 ;;      Params:         0       0       0       0       0       0       0       0
  2885 ;;      Locals:         0       0       0       0       0       0       0       0
  2886 ;;      Temps:          0       0       0       0       0       0       0       0
  2887 ;;      Totals:         0       0       0       0       0       0       0       0
  2888 ;;Total ram usage:        0 bytes
  2889 ;; Hardware stack levels used: 1
  2890 ;; Hardware stack levels required when called: 4
  2891 ;; This function calls:
  2892 ;;		Nothing
  2893 ;; This function is called by:
  2894 ;;		_SYSTEM_Initialize
  2895 ;; This function uses a non-reentrant model
  2896 ;;
  2897                           
  2898     04CA                     _TMR2_Initialize:	
  2899                           ;psect for function _TMR2_Initialize
  2900                           
  2901     04CA                     l2040:	
  2902                           ;incstack = 0
  2903                           ; Regs used in _TMR2_Initialize: [wreg+status,2]
  2904                           
  2905                           
  2906                           ;D:\yiming\00work\TY1475_HIGH_R_V03.X\mcc_generated_files\tmr2.c: 67:     PR2 = 0x7C;
  2907     04CA  307C               	movlw	124
  2908     04CB  0020               	movlb	0	; select bank0
  2909     04CC  009B               	movwf	27	;volatile
  2910     04CD                     l2042:
  2911                           
  2912                           ;D:\yiming\00work\TY1475_HIGH_R_V03.X\mcc_generated_files\tmr2.c: 70:     TMR2 = 0x00;
  2913     04CD  019A               	clrf	26	;volatile
  2914     04CE                     l2044:
  2915                           
  2916                           ;D:\yiming\00work\TY1475_HIGH_R_V03.X\mcc_generated_files\tmr2.c: 73:     PIR1bits.TMR2I
      +                          F = 0;
  2917     04CE  1091               	bcf	17,1	;volatile
  2918     04CF                     l2046:
  2919                           
  2920                           ;D:\yiming\00work\TY1475_HIGH_R_V03.X\mcc_generated_files\tmr2.c: 76:     T2CON = 0x07;
  2921     04CF  3007               	movlw	7
  2922     04D0  009C               	movwf	28	;volatile
  2923     04D1                     l464:
  2924     04D1  0008               	return
  2925     04D2                     __end_of_TMR2_Initialize:
  2926                           
  2927                           	psect	text6
  2928     048D                     __ptext6:	
  2929 ;; *************** function _TMR1_Initialize *****************
  2930 ;; Defined at:
  2931 ;;		line 63 in file "D:\yiming\00work\TY1475_HIGH_R_V03.X\mcc_generated_files\tmr1.c"
  2932 ;; Parameters:    Size  Location     Type
  2933 ;;		None
  2934 ;; Auto vars:     Size  Location     Type
  2935 ;;		None
  2936 ;; Return value:  Size  Location     Type
  2937 ;;                  1    wreg      void 
  2938 ;; Registers used:
  2939 ;;		wreg, status,2
  2940 ;; Tracked objects:
  2941 ;;		On entry : 0/0
  2942 ;;		On exit  : 0/0
  2943 ;;		Unchanged: 0/0
  2944 ;; Data sizes:     COMMON   BANK0   BANK1   BANK2   BANK3   BANK4   BANK5   BANK6
  2945 ;;      Params:         0       0       0       0       0       0       0       0
  2946 ;;      Locals:         0       0       0       0       0       0       0       0
  2947 ;;      Temps:          0       0       0       0       0       0       0       0
  2948 ;;      Totals:         0       0       0       0       0       0       0       0
  2949 ;;Total ram usage:        0 bytes
  2950 ;; Hardware stack levels used: 1
  2951 ;; Hardware stack levels required when called: 4
  2952 ;; This function calls:
  2953 ;;		Nothing
  2954 ;; This function is called by:
  2955 ;;		_SYSTEM_Initialize
  2956 ;; This function uses a non-reentrant model
  2957 ;;
  2958                           
  2959     048D                     _TMR1_Initialize:	
  2960                           ;psect for function _TMR1_Initialize
  2961                           
  2962     048D                     l2048:	
  2963                           ;incstack = 0
  2964                           ; Regs used in _TMR1_Initialize: [wreg+status,2]
  2965                           
  2966                           
  2967                           ;D:\yiming\00work\TY1475_HIGH_R_V03.X\mcc_generated_files\tmr1.c: 68:     T1GCON = 0x10;
  2968     048D  3010               	movlw	16
  2969     048E  0020               	movlb	0	; select bank0
  2970     048F  0099               	movwf	25	;volatile
  2971     0490                     l2050:
  2972                           
  2973                           ;D:\yiming\00work\TY1475_HIGH_R_V03.X\mcc_generated_files\tmr1.c: 71:     TMR1H = 0x00;
  2974     0490  0197               	clrf	23	;volatile
  2975     0491                     l2052:
  2976                           
  2977                           ;D:\yiming\00work\TY1475_HIGH_R_V03.X\mcc_generated_files\tmr1.c: 74:     TMR1L = 0x00;
  2978     0491  0196               	clrf	22	;volatile
  2979     0492                     l2054:
  2980                           
  2981                           ;D:\yiming\00work\TY1475_HIGH_R_V03.X\mcc_generated_files\tmr1.c: 77:     PIR1bits.TMR1I
      +                          F = 0;
  2982     0492  1011               	bcf	17,0	;volatile
  2983                           
  2984                           ;D:\yiming\00work\TY1475_HIGH_R_V03.X\mcc_generated_files\tmr1.c: 80:     timer1ReloadVa
      +                          l=(uint16_t)((TMR1H << 8) | TMR1L);
  2985     0493  0817               	movf	23,w	;volatile
  2986     0494  00AC               	movwf	_timer1ReloadVal+1	;volatile
  2987     0495  0816               	movf	22,w	;volatile
  2988     0496  00AB               	movwf	_timer1ReloadVal	;volatile
  2989                           
  2990                           ;D:\yiming\00work\TY1475_HIGH_R_V03.X\mcc_generated_files\tmr1.c: 83:     T1CON = 0x01;
  2991     0497  3001               	movlw	1
  2992     0498  0098               	movwf	24	;volatile
  2993     0499                     l453:
  2994     0499  0008               	return
  2995     049A                     __end_of_TMR1_Initialize:
  2996                           
  2997                           	psect	text7
  2998     045B                     __ptext7:	
  2999 ;; *************** function _TMR0_Initialize *****************
  3000 ;; Defined at:
  3001 ;;		line 64 in file "D:\yiming\00work\TY1475_HIGH_R_V03.X\mcc_generated_files\tmr0.c"
  3002 ;; Parameters:    Size  Location     Type
  3003 ;;		None
  3004 ;; Auto vars:     Size  Location     Type
  3005 ;;		None
  3006 ;; Return value:  Size  Location     Type
  3007 ;;                  1    wreg      void 
  3008 ;; Registers used:
  3009 ;;		wreg, status,2, status,0, pclath, cstack
  3010 ;; Tracked objects:
  3011 ;;		On entry : 0/0
  3012 ;;		On exit  : 0/0
  3013 ;;		Unchanged: 0/0
  3014 ;; Data sizes:     COMMON   BANK0   BANK1   BANK2   BANK3   BANK4   BANK5   BANK6
  3015 ;;      Params:         0       0       0       0       0       0       0       0
  3016 ;;      Locals:         0       0       0       0       0       0       0       0
  3017 ;;      Temps:          0       0       0       0       0       0       0       0
  3018 ;;      Totals:         0       0       0       0       0       0       0       0
  3019 ;;Total ram usage:        0 bytes
  3020 ;; Hardware stack levels used: 1
  3021 ;; Hardware stack levels required when called: 5
  3022 ;; This function calls:
  3023 ;;		_TMR0_SetInterruptHandler
  3024 ;; This function is called by:
  3025 ;;		_SYSTEM_Initialize
  3026 ;; This function uses a non-reentrant model
  3027 ;;
  3028                           
  3029     045B                     _TMR0_Initialize:	
  3030                           ;psect for function _TMR0_Initialize
  3031                           
  3032     045B                     l2056:	
  3033                           ;incstack = 0
  3034                           ; Regs used in _TMR0_Initialize: [wreg+status,2+status,0+pclath+cstack]
  3035                           
  3036                           
  3037                           ;D:\yiming\00work\TY1475_HIGH_R_V03.X\mcc_generated_files\tmr0.c: 69:     OPTION_REG = (
      +                          uint8_t)((OPTION_REG & 0xC0) | (0xD4 & 0x3F));
  3038     045B  0021               	movlb	1	; select bank1
  3039     045C  0815               	movf	21,w	;volatile
  3040     045D  39C0               	andlw	192
  3041     045E  3814               	iorlw	20
  3042     045F  0095               	movwf	21	;volatile
  3043     0460                     l2058:
  3044                           
  3045                           ;D:\yiming\00work\TY1475_HIGH_R_V03.X\mcc_generated_files\tmr0.c: 72:     TMR0 = 0x06;
  3046     0460  3006               	movlw	6
  3047     0461  0020               	movlb	0	; select bank0
  3048     0462  0095               	movwf	21	;volatile
  3049     0463                     l2060:
  3050                           
  3051                           ;D:\yiming\00work\TY1475_HIGH_R_V03.X\mcc_generated_files\tmr0.c: 75:     timer0ReloadVa
      +                          l= 6;
  3052     0463  3006               	movlw	6
  3053     0464  00B5               	movwf	_timer0ReloadVal	;volatile
  3054     0465                     l2062:
  3055                           
  3056                           ;D:\yiming\00work\TY1475_HIGH_R_V03.X\mcc_generated_files\tmr0.c: 78:     INTCONbits.TMR
      +                          0IF = 0;
  3057     0465  110B               	bcf	11,2	;volatile
  3058     0466                     l2064:
  3059                           
  3060                           ;D:\yiming\00work\TY1475_HIGH_R_V03.X\mcc_generated_files\tmr0.c: 81:     INTCONbits.TMR
      +                          0IE = 1;
  3061     0466  168B               	bsf	11,5	;volatile
  3062     0467                     l2066:
  3063                           
  3064                           ;D:\yiming\00work\TY1475_HIGH_R_V03.X\mcc_generated_files\tmr0.c: 84:     TMR0_SetInterr
      +                          uptHandler(TMR0_DefaultInterruptHandler);
  3065     0467  30E8               	movlw	low _TMR0_DefaultInterruptHandler
  3066     0468  00C5               	movwf	TMR0_SetInterruptHandler@InterruptHandler
  3067     0469  3004               	movlw	high _TMR0_DefaultInterruptHandler
  3068     046A  00C6               	movwf	TMR0_SetInterruptHandler@InterruptHandler+1
  3069     046B  3184  24DE  3184   	fcall	_TMR0_SetInterruptHandler
  3070     046E                     l422:
  3071     046E  0008               	return
  3072     046F                     __end_of_TMR0_Initialize:
  3073                           
  3074                           	psect	text8
  3075     04DE                     __ptext8:	
  3076 ;; *************** function _TMR0_SetInterruptHandler *****************
  3077 ;; Defined at:
  3078 ;;		line 140 in file "D:\yiming\00work\TY1475_HIGH_R_V03.X\mcc_generated_files\tmr0.c"
  3079 ;; Parameters:    Size  Location     Type
  3080 ;;  InterruptHan    2    0[BANK0 ] PTR FTN()void 
  3081 ;;		 -> TMR0_DefaultInterruptHandler(1), TMR0_EvenHandler(1), 
  3082 ;; Auto vars:     Size  Location     Type
  3083 ;;		None
  3084 ;; Return value:  Size  Location     Type
  3085 ;;                  1    wreg      void 
  3086 ;; Registers used:
  3087 ;;		wreg
  3088 ;; Tracked objects:
  3089 ;;		On entry : 0/0
  3090 ;;		On exit  : 0/0
  3091 ;;		Unchanged: 0/0
  3092 ;; Data sizes:     COMMON   BANK0   BANK1   BANK2   BANK3   BANK4   BANK5   BANK6
  3093 ;;      Params:         0       2       0       0       0       0       0       0
  3094 ;;      Locals:         0       0       0       0       0       0       0       0
  3095 ;;      Temps:          0       0       0       0       0       0       0       0
  3096 ;;      Totals:         0       2       0       0       0       0       0       0
  3097 ;;Total ram usage:        2 bytes
  3098 ;; Hardware stack levels used: 1
  3099 ;; Hardware stack levels required when called: 4
  3100 ;; This function calls:
  3101 ;;		Nothing
  3102 ;; This function is called by:
  3103 ;;		_main
  3104 ;;		_TMR0_Initialize
  3105 ;; This function uses a non-reentrant model
  3106 ;;
  3107                           
  3108     04DE                     _TMR0_SetInterruptHandler:	
  3109                           ;psect for function _TMR0_SetInterruptHandler
  3110                           
  3111     04DE                     l1970:	
  3112                           ;incstack = 0
  3113                           ; Regs used in _TMR0_SetInterruptHandler: [wreg]
  3114                           
  3115                           
  3116                           ;D:\yiming\00work\TY1475_HIGH_R_V03.X\mcc_generated_files\tmr0.c: 141:     TMR0_Interrup
      +                          tHandler = InterruptHandler;
  3117     04DE  0020               	movlb	0	; select bank0
  3118     04DF  0846               	movf	TMR0_SetInterruptHandler@InterruptHandler+1,w
  3119     04E0  00B0               	movwf	_TMR0_InterruptHandler+1
  3120     04E1  0845               	movf	TMR0_SetInterruptHandler@InterruptHandler,w
  3121     04E2  00AF               	movwf	_TMR0_InterruptHandler
  3122     04E3                     l435:
  3123     04E3  0008               	return
  3124     04E4                     __end_of_TMR0_SetInterruptHandler:
  3125                           
  3126                           	psect	text9
  3127     03D2                     __ptext9:	
  3128 ;; *************** function _PIN_MANAGER_Initialize *****************
  3129 ;; Defined at:
  3130 ;;		line 55 in file "D:\yiming\00work\TY1475_HIGH_R_V03.X\mcc_generated_files\pin_manager.c"
  3131 ;; Parameters:    Size  Location     Type
  3132 ;;		None
  3133 ;; Auto vars:     Size  Location     Type
  3134 ;;		None
  3135 ;; Return value:  Size  Location     Type
  3136 ;;                  1    wreg      void 
  3137 ;; Registers used:
  3138 ;;		wreg, status,2
  3139 ;; Tracked objects:
  3140 ;;		On entry : 0/0
  3141 ;;		On exit  : 0/0
  3142 ;;		Unchanged: 0/0
  3143 ;; Data sizes:     COMMON   BANK0   BANK1   BANK2   BANK3   BANK4   BANK5   BANK6
  3144 ;;      Params:         0       0       0       0       0       0       0       0
  3145 ;;      Locals:         0       0       0       0       0       0       0       0
  3146 ;;      Temps:          0       0       0       0       0       0       0       0
  3147 ;;      Totals:         0       0       0       0       0       0       0       0
  3148 ;;Total ram usage:        0 bytes
  3149 ;; Hardware stack levels used: 1
  3150 ;; Hardware stack levels required when called: 4
  3151 ;; This function calls:
  3152 ;;		Nothing
  3153 ;; This function is called by:
  3154 ;;		_SYSTEM_Initialize
  3155 ;; This function uses a non-reentrant model
  3156 ;;
  3157                           
  3158     03D2                     _PIN_MANAGER_Initialize:	
  3159                           ;psect for function _PIN_MANAGER_Initialize
  3160                           
  3161     03D2                     l2008:	
  3162                           ;incstack = 0
  3163                           ; Regs used in _PIN_MANAGER_Initialize: [wreg+status,2]
  3164                           
  3165                           
  3166                           ;D:\yiming\00work\TY1475_HIGH_R_V03.X\mcc_generated_files\pin_manager.c: 60:     LATE = 
      +                          0x00;
  3167     03D2  0022               	movlb	2	; select bank2
  3168     03D3  0190               	clrf	16	;volatile
  3169                           
  3170                           ;D:\yiming\00work\TY1475_HIGH_R_V03.X\mcc_generated_files\pin_manager.c: 61:     LATA = 
      +                          0x00;
  3171     03D4  018C               	clrf	12	;volatile
  3172     03D5                     l2010:
  3173                           
  3174                           ;D:\yiming\00work\TY1475_HIGH_R_V03.X\mcc_generated_files\pin_manager.c: 62:     LATB = 
      +                          0x08;
  3175     03D5  3008               	movlw	8
  3176     03D6  008D               	movwf	13	;volatile
  3177     03D7                     l2012:
  3178                           
  3179                           ;D:\yiming\00work\TY1475_HIGH_R_V03.X\mcc_generated_files\pin_manager.c: 63:     LATC = 
      +                          0x10;
  3180     03D7  3010               	movlw	16
  3181     03D8  008E               	movwf	14	;volatile
  3182     03D9                     l2014:
  3183                           
  3184                           ;D:\yiming\00work\TY1475_HIGH_R_V03.X\mcc_generated_files\pin_manager.c: 68:     TRISE =
      +                           0x08;
  3185     03D9  3008               	movlw	8
  3186     03DA  0021               	movlb	1	; select bank1
  3187     03DB  0090               	movwf	16	;volatile
  3188     03DC                     l2016:
  3189                           
  3190                           ;D:\yiming\00work\TY1475_HIGH_R_V03.X\mcc_generated_files\pin_manager.c: 69:     TRISA =
      +                           0xF6;
  3191     03DC  30F6               	movlw	246
  3192     03DD  008C               	movwf	12	;volatile
  3193     03DE                     l2018:
  3194                           
  3195                           ;D:\yiming\00work\TY1475_HIGH_R_V03.X\mcc_generated_files\pin_manager.c: 70:     TRISB =
      +                           0xFF;
  3196     03DE  30FF               	movlw	255
  3197     03DF  008D               	movwf	13	;volatile
  3198     03E0                     l2020:
  3199                           
  3200                           ;D:\yiming\00work\TY1475_HIGH_R_V03.X\mcc_generated_files\pin_manager.c: 71:     TRISC =
      +                           0xF9;
  3201     03E0  30F9               	movlw	249
  3202     03E1  008E               	movwf	14	;volatile
  3203     03E2                     l2022:
  3204                           
  3205                           ;D:\yiming\00work\TY1475_HIGH_R_V03.X\mcc_generated_files\pin_manager.c: 76:     ANSELB 
      +                          = 0x37;
  3206     03E2  3037               	movlw	55
  3207     03E3  0023               	movlb	3	; select bank3
  3208     03E4  008D               	movwf	13	;volatile
  3209     03E5                     l2024:
  3210                           
  3211                           ;D:\yiming\00work\TY1475_HIGH_R_V03.X\mcc_generated_files\pin_manager.c: 77:     ANSELA 
      +                          = 0x3F;
  3212     03E5  303F               	movlw	63
  3213     03E6  008C               	movwf	12	;volatile
  3214                           
  3215                           ;D:\yiming\00work\TY1475_HIGH_R_V03.X\mcc_generated_files\pin_manager.c: 82:     WPUE = 
      +                          0x00;
  3216     03E7  0024               	movlb	4	; select bank4
  3217     03E8  0190               	clrf	16	;volatile
  3218     03E9                     l2026:
  3219                           
  3220                           ;D:\yiming\00work\TY1475_HIGH_R_V03.X\mcc_generated_files\pin_manager.c: 83:     WPUB = 
      +                          0x08;
  3221     03E9  3008               	movlw	8
  3222     03EA  008D               	movwf	13	;volatile
  3223     03EB                     l2028:
  3224                           
  3225                           ;D:\yiming\00work\TY1475_HIGH_R_V03.X\mcc_generated_files\pin_manager.c: 84:     OPTION_
      +                          REGbits.nWPUEN = 0;
  3226     03EB  0021               	movlb	1	; select bank1
  3227     03EC  1395               	bcf	21,7	;volatile
  3228     03ED                     l2030:
  3229                           
  3230                           ;D:\yiming\00work\TY1475_HIGH_R_V03.X\mcc_generated_files\pin_manager.c: 90:     APFCON 
      +                          = 0x00;
  3231     03ED  0022               	movlb	2	; select bank2
  3232     03EE  019D               	clrf	29	;volatile
  3233     03EF                     l403:
  3234     03EF  0008               	return
  3235     03F0                     __end_of_PIN_MANAGER_Initialize:
  3236                           
  3237                           	psect	text10
  3238     04B4                     __ptext10:	
  3239 ;; *************** function _OSCILLATOR_Initialize *****************
  3240 ;; Defined at:
  3241 ;;		line 63 in file "D:\yiming\00work\TY1475_HIGH_R_V03.X\mcc_generated_files\mcc.c"
  3242 ;; Parameters:    Size  Location     Type
  3243 ;;		None
  3244 ;; Auto vars:     Size  Location     Type
  3245 ;;		None
  3246 ;; Return value:  Size  Location     Type
  3247 ;;                  1    wreg      void 
  3248 ;; Registers used:
  3249 ;;		wreg, status,2
  3250 ;; Tracked objects:
  3251 ;;		On entry : 0/0
  3252 ;;		On exit  : 0/0
  3253 ;;		Unchanged: 0/0
  3254 ;; Data sizes:     COMMON   BANK0   BANK1   BANK2   BANK3   BANK4   BANK5   BANK6
  3255 ;;      Params:         0       0       0       0       0       0       0       0
  3256 ;;      Locals:         0       0       0       0       0       0       0       0
  3257 ;;      Temps:          0       0       0       0       0       0       0       0
  3258 ;;      Totals:         0       0       0       0       0       0       0       0
  3259 ;;Total ram usage:        0 bytes
  3260 ;; Hardware stack levels used: 1
  3261 ;; Hardware stack levels required when called: 4
  3262 ;; This function calls:
  3263 ;;		Nothing
  3264 ;; This function is called by:
  3265 ;;		_SYSTEM_Initialize
  3266 ;; This function uses a non-reentrant model
  3267 ;;
  3268                           
  3269     04B4                     _OSCILLATOR_Initialize:	
  3270                           ;psect for function _OSCILLATOR_Initialize
  3271                           
  3272     04B4                     l2032:	
  3273                           ;incstack = 0
  3274                           ; Regs used in _OSCILLATOR_Initialize: [wreg+status,2]
  3275                           
  3276                           
  3277                           ;D:\yiming\00work\TY1475_HIGH_R_V03.X\mcc_generated_files\mcc.c: 66:     OSCCON = 0x70;
  3278     04B4  3070               	movlw	112
  3279     04B5  0021               	movlb	1	; select bank1
  3280     04B6  0099               	movwf	25	;volatile
  3281     04B7                     l2034:
  3282                           
  3283                           ;D:\yiming\00work\TY1475_HIGH_R_V03.X\mcc_generated_files\mcc.c: 68:     OSCTUNE = 0x00;
  3284     04B7  0198               	clrf	24	;volatile
  3285     04B8                     l2036:
  3286                           
  3287                           ;D:\yiming\00work\TY1475_HIGH_R_V03.X\mcc_generated_files\mcc.c: 70:     BORCON = 0x00;
  3288     04B8  0022               	movlb	2	; select bank2
  3289     04B9  0196               	clrf	22	;volatile
  3290     04BA                     l366:	
  3291                           ;D:\yiming\00work\TY1475_HIGH_R_V03.X\mcc_generated_files\mcc.c: 73:     {;D:\yiming\00w
      +                          ork\TY1475_HIGH_R_V03.X\mcc_generated_files\mcc.c: 74:     }
  3292                           
  3293                           
  3294                           ;D:\yiming\00work\TY1475_HIGH_R_V03.X\mcc_generated_files\mcc.c: 72:     while(PLLR == 0
      +                          )
  3295     04BA  0021               	movlb	1	; select bank1
  3296     04BB  1F1A               	btfss	26,6	;volatile
  3297     04BC  2CBE               	goto	u2171
  3298     04BD  2CBF               	goto	u2170
  3299     04BE                     u2171:
  3300     04BE  2CBA               	goto	l366
  3301     04BF                     u2170:
  3302     04BF                     l369:
  3303     04BF  0008               	return
  3304     04C0                     __end_of_OSCILLATOR_Initialize:
  3305                           
  3306                           	psect	text11
  3307     049A                     __ptext11:	
  3308 ;; *************** function _EPWM1_Initialize *****************
  3309 ;; Defined at:
  3310 ;;		line 64 in file "D:\yiming\00work\TY1475_HIGH_R_V03.X\mcc_generated_files\epwm1.c"
  3311 ;; Parameters:    Size  Location     Type
  3312 ;;		None
  3313 ;; Auto vars:     Size  Location     Type
  3314 ;;		None
  3315 ;; Return value:  Size  Location     Type
  3316 ;;                  1    wreg      void 
  3317 ;; Registers used:
  3318 ;;		wreg, status,2, status,0
  3319 ;; Tracked objects:
  3320 ;;		On entry : 0/0
  3321 ;;		On exit  : 0/0
  3322 ;;		Unchanged: 0/0
  3323 ;; Data sizes:     COMMON   BANK0   BANK1   BANK2   BANK3   BANK4   BANK5   BANK6
  3324 ;;      Params:         0       0       0       0       0       0       0       0
  3325 ;;      Locals:         0       0       0       0       0       0       0       0
  3326 ;;      Temps:          0       0       0       0       0       0       0       0
  3327 ;;      Totals:         0       0       0       0       0       0       0       0
  3328 ;;Total ram usage:        0 bytes
  3329 ;; Hardware stack levels used: 1
  3330 ;; Hardware stack levels required when called: 4
  3331 ;; This function calls:
  3332 ;;		Nothing
  3333 ;; This function is called by:
  3334 ;;		_SYSTEM_Initialize
  3335 ;; This function uses a non-reentrant model
  3336 ;;
  3337                           
  3338     049A                     _EPWM1_Initialize:	
  3339                           ;psect for function _EPWM1_Initialize
  3340                           
  3341     049A                     l1994:	
  3342                           ;incstack = 0
  3343                           ; Regs used in _EPWM1_Initialize: [wreg+status,2+status,0]
  3344                           
  3345                           
  3346                           ;D:\yiming\00work\TY1475_HIGH_R_V03.X\mcc_generated_files\epwm1.c: 69:  CCP1CON = 0x0C;
  3347     049A  300C               	movlw	12
  3348     049B  0025               	movlb	5	; select bank5
  3349     049C  0093               	movwf	19	;volatile
  3350     049D                     l1996:
  3351                           
  3352                           ;D:\yiming\00work\TY1475_HIGH_R_V03.X\mcc_generated_files\epwm1.c: 72:  ECCP1AS = 0x00;
  3353     049D  0195               	clrf	21	;volatile
  3354     049E                     l1998:
  3355                           
  3356                           ;D:\yiming\00work\TY1475_HIGH_R_V03.X\mcc_generated_files\epwm1.c: 75:  PWM1CON = 0x80;
  3357     049E  3080               	movlw	128
  3358     049F  0094               	movwf	20	;volatile
  3359     04A0                     l2000:
  3360                           
  3361                           ;D:\yiming\00work\TY1475_HIGH_R_V03.X\mcc_generated_files\epwm1.c: 78:  PSTR1CON = 0x01;
  3362     04A0  3001               	movlw	1
  3363     04A1  0096               	movwf	22	;volatile
  3364     04A2                     l2002:
  3365                           
  3366                           ;D:\yiming\00work\TY1475_HIGH_R_V03.X\mcc_generated_files\epwm1.c: 81:  CCPR1H = 0x00;
  3367     04A2  0192               	clrf	18	;volatile
  3368     04A3                     l2004:
  3369                           
  3370                           ;D:\yiming\00work\TY1475_HIGH_R_V03.X\mcc_generated_files\epwm1.c: 84:  CCPR1L = 0x00;
  3371     04A3  0191               	clrf	17	;volatile
  3372     04A4                     l2006:
  3373                           
  3374                           ;D:\yiming\00work\TY1475_HIGH_R_V03.X\mcc_generated_files\epwm1.c: 87:  CCPTMRS0bits.C1T
      +                          SEL = 0x0;
  3375     04A4  30FC               	movlw	-4
  3376     04A5  059E               	andwf	30,f	;volatile
  3377     04A6                     l310:
  3378     04A6  0008               	return
  3379     04A7                     __end_of_EPWM1_Initialize:
  3380                           
  3381                           	psect	text12
  3382     04C0                     __ptext12:	
  3383 ;; *************** function _ECCP3_Initialize *****************
  3384 ;; Defined at:
  3385 ;;		line 59 in file "D:\yiming\00work\TY1475_HIGH_R_V03.X\mcc_generated_files\eccp3.c"
  3386 ;; Parameters:    Size  Location     Type
  3387 ;;		None
  3388 ;; Auto vars:     Size  Location     Type
  3389 ;;		None
  3390 ;; Return value:  Size  Location     Type
  3391 ;;                  1    wreg      void 
  3392 ;; Registers used:
  3393 ;;		wreg, status,2
  3394 ;; Tracked objects:
  3395 ;;		On entry : 0/0
  3396 ;;		On exit  : 0/0
  3397 ;;		Unchanged: 0/0
  3398 ;; Data sizes:     COMMON   BANK0   BANK1   BANK2   BANK3   BANK4   BANK5   BANK6
  3399 ;;      Params:         0       0       0       0       0       0       0       0
  3400 ;;      Locals:         0       0       0       0       0       0       0       0
  3401 ;;      Temps:          0       0       0       0       0       0       0       0
  3402 ;;      Totals:         0       0       0       0       0       0       0       0
  3403 ;;Total ram usage:        0 bytes
  3404 ;; Hardware stack levels used: 1
  3405 ;; Hardware stack levels required when called: 4
  3406 ;; This function calls:
  3407 ;;		Nothing
  3408 ;; This function is called by:
  3409 ;;		_SYSTEM_Initialize
  3410 ;; This function uses a non-reentrant model
  3411 ;;
  3412                           
  3413     04C0                     _ECCP3_Initialize:	
  3414                           ;psect for function _ECCP3_Initialize
  3415                           
  3416     04C0                     l1984:	
  3417                           ;incstack = 0
  3418                           ; Regs used in _ECCP3_Initialize: [wreg+status,2]
  3419                           
  3420                           
  3421                           ;D:\yiming\00work\TY1475_HIGH_R_V03.X\mcc_generated_files\eccp3.c: 64:  CCP3CON = 0x05;
  3422     04C0  3005               	movlw	5
  3423     04C1  0026               	movlb	6	; select bank6
  3424     04C2  0093               	movwf	19	;volatile
  3425     04C3                     l1986:
  3426                           
  3427                           ;D:\yiming\00work\TY1475_HIGH_R_V03.X\mcc_generated_files\eccp3.c: 67:  CCPR3H = 0x00;
  3428     04C3  0192               	clrf	18	;volatile
  3429     04C4                     l1988:
  3430                           
  3431                           ;D:\yiming\00work\TY1475_HIGH_R_V03.X\mcc_generated_files\eccp3.c: 70:  CCPR3L = 0x00;
  3432     04C4  0191               	clrf	17	;volatile
  3433     04C5                     l1990:
  3434                           
  3435                           ;D:\yiming\00work\TY1475_HIGH_R_V03.X\mcc_generated_files\eccp3.c: 73:     PIR3bits.CCP3
      +                          IF = 0;
  3436     04C5  0020               	movlb	0	; select bank0
  3437     04C6  1213               	bcf	19,4	;volatile
  3438     04C7                     l1992:
  3439                           
  3440                           ;D:\yiming\00work\TY1475_HIGH_R_V03.X\mcc_generated_files\eccp3.c: 76:     PIE3bits.CCP3
      +                          IE = 1;
  3441     04C7  0021               	movlb	1	; select bank1
  3442     04C8  1613               	bsf	19,4	;volatile
  3443     04C9                     l290:
  3444     04C9  0008               	return
  3445     04CA                     __end_of_ECCP3_Initialize:
  3446                           
  3447                           	psect	text13
  3448     0046                     __ptext13:	
  3449 ;; *************** function _LED_output *****************
  3450 ;; Defined at:
  3451 ;;		line 296 in file "D:\yiming\00work\TY1475_HIGH_R_V03.X\main.c"
  3452 ;; Parameters:    Size  Location     Type
  3453 ;;		None
  3454 ;; Auto vars:     Size  Location     Type
  3455 ;;  i               1    8[BANK0 ] unsigned char 
  3456 ;;  crc8            1    7[BANK0 ] unsigned char 
  3457 ;; Return value:  Size  Location     Type
  3458 ;;                  1    wreg      void 
  3459 ;; Registers used:
  3460 ;;		wreg, fsr1l, fsr1h, status,2, status,0, pclath, cstack
  3461 ;; Tracked objects:
  3462 ;;		On entry : 0/0
  3463 ;;		On exit  : 0/0
  3464 ;;		Unchanged: 0/0
  3465 ;; Data sizes:     COMMON   BANK0   BANK1   BANK2   BANK3   BANK4   BANK5   BANK6
  3466 ;;      Params:         0       0       0       0       0       0       0       0
  3467 ;;      Locals:         0       2       0       0       0       0       0       0
  3468 ;;      Temps:          0       1       0       0       0       0       0       0
  3469 ;;      Totals:         0       3       0       0       0       0       0       0
  3470 ;;Total ram usage:        3 bytes
  3471 ;; Hardware stack levels used: 1
  3472 ;; Hardware stack levels required when called: 6
  3473 ;; This function calls:
  3474 ;;		_DRL_ON
  3475 ;;		_EPWM1_LoadDutyValue
  3476 ;; This function is called by:
  3477 ;;		_main
  3478 ;; This function uses a non-reentrant model
  3479 ;;
  3480                           
  3481     0046                     _LED_output:	
  3482                           ;psect for function _LED_output
  3483                           
  3484     0046                     l2078:	
  3485                           ;incstack = 0
  3486                           ; Regs used in _LED_output: [wreg+fsr1l+fsr1h+status,2+status,0+pclath+cstack]
  3487                           
  3488                           
  3489                           ;D:\yiming\00work\TY1475_HIGH_R_V03.X\main.c: 297:   uint8_t crc8 = CS[csFlag.Byte];
  3490     0046  0020               	movlb	0	; select bank0
  3491     0047  0840               	movf	_csFlag,w
  3492     0048  3EA0               	addlw	(low (_CS| 0))& (0+255)
  3493     0049  0086               	movwf	6
  3494     004A  0187               	clrf	7
  3495     004B  0801               	movf	1,w
  3496     004C  00CC               	movwf	LED_output@crc8
  3497     004D                     l2080:
  3498                           
  3499                           ;D:\yiming\00work\TY1475_HIGH_R_V03.X\main.c: 299:   if (data_buf[10] != crc8)
  3500     004D  082A               	movf	_data_buf+10,w
  3501     004E  064C               	xorwf	LED_output@crc8,w
  3502     004F  1903               	skipnz
  3503     0050  2852               	goto	u2201
  3504     0051  2853               	goto	u2200
  3505     0052                     u2201:
  3506     0052  2854               	goto	l2084
  3507     0053                     u2200:
  3508     0053  29C2               	goto	l64
  3509     0054                     l2084:
  3510                           
  3511                           ;D:\yiming\00work\TY1475_HIGH_R_V03.X\main.c: 307:   T10MS_CNT = 0;
  3512     0054  01BF               	clrf	_T10MS_CNT	;volatile
  3513     0055                     l2086:
  3514                           
  3515                           ;D:\yiming\00work\TY1475_HIGH_R_V03.X\main.c: 310:   if (csFlag.RunLight == 1) {
  3516     0055  1EC0               	btfss	_csFlag,5
  3517     0056  2858               	goto	u2211
  3518     0057  2859               	goto	u2210
  3519     0058                     u2211:
  3520     0058  285C               	goto	l69
  3521     0059                     u2210:
  3522     0059                     l66:	
  3523                           ;D:\yiming\00work\TY1475_HIGH_R_V03.X\main.c: 311:     do { LATAbits.LATA3 = 1; } while(
      +                          0);
  3524                           
  3525     0059  0022               	movlb	2	; select bank2
  3526     005A  158C               	bsf	12,3	;volatile
  3527     005B  285E               	goto	l68
  3528     005C                     l69:	
  3529                           ;D:\yiming\00work\TY1475_HIGH_R_V03.X\main.c: 313:     do { LATAbits.LATA3 = 0; } while(
      +                          0);
  3530                           
  3531     005C  0022               	movlb	2	; select bank2
  3532     005D  118C               	bcf	12,3	;volatile
  3533     005E                     l68:	
  3534                           ;D:\yiming\00work\TY1475_HIGH_R_V03.X\main.c: 314:   }
  3535                           
  3536                           
  3537                           ;D:\yiming\00work\TY1475_HIGH_R_V03.X\main.c: 316:   if (csFlag.RunLight == 0 && csFlag.
      +                          LoBeam == 0 && csFlag.HiBeam == 0 &&
  3538     005E  0020               	movlb	0	; select bank0
  3539     005F  1AC0               	btfsc	_csFlag,5
  3540     0060  2862               	goto	u2221
  3541     0061  2863               	goto	u2220
  3542     0062                     u2221:
  3543     0062  287A               	goto	l71
  3544     0063                     u2220:
  3545     0063                     l2088:
  3546     0063  19C0               	btfsc	_csFlag,3
  3547     0064  2866               	goto	u2231
  3548     0065  2867               	goto	u2230
  3549     0066                     u2231:
  3550     0066  287A               	goto	l71
  3551     0067                     u2230:
  3552     0067                     l2090:
  3553     0067  1940               	btfsc	_csFlag,2
  3554     0068  286A               	goto	u2241
  3555     0069  286B               	goto	u2240
  3556     006A                     u2241:
  3557     006A  287A               	goto	l71
  3558     006B                     u2240:
  3559     006B                     l2092:
  3560     006B  1A40               	btfsc	_csFlag,4
  3561     006C  286E               	goto	u2251
  3562     006D  286F               	goto	u2250
  3563     006E                     u2251:
  3564     006E  287A               	goto	l71
  3565     006F                     u2250:
  3566     006F                     l72:	
  3567                           ;D:\yiming\00work\TY1475_HIGH_R_V03.X\main.c: 317:       csFlag.DRL == 0) {;D:\yiming\00
      +                          work\TY1475_HIGH_R_V03.X\main.c: 319:     do { LATCbits.LATC1 = 0; } while(0);
  3568                           
  3569     006F  0022               	movlb	2	; select bank2
  3570     0070  108E               	bcf	14,1	;volatile
  3571     0071                     l74:	
  3572                           ;D:\yiming\00work\TY1475_HIGH_R_V03.X\main.c: 320:     do { LATAbits.LATA0 = 0; } while(
      +                          0);
  3573                           
  3574     0071  100C               	bcf	12,0	;volatile
  3575     0072                     l2094:
  3576                           
  3577                           ;D:\yiming\00work\TY1475_HIGH_R_V03.X\main.c: 321:     EPWM1_LoadDutyValue((0));
  3578     0072  3000               	movlw	0
  3579     0073  0020               	movlb	0	; select bank0
  3580     0074  00C5               	movwf	EPWM1_LoadDutyValue@dutyValue
  3581     0075  00C6               	movwf	EPWM1_LoadDutyValue@dutyValue+1
  3582     0076  3184  240E  3180   	fcall	_EPWM1_LoadDutyValue
  3583                           
  3584                           ;D:\yiming\00work\TY1475_HIGH_R_V03.X\main.c: 322:   } else if (csFlag.RunLight == 0 && 
      +                          csFlag.LoBeam == 0 && csFlag.HiBeam == 0 &&
  3585     0079  29B1               	goto	l2216
  3586     007A                     l71:
  3587     007A  1AC0               	btfsc	_csFlag,5
  3588     007B  287D               	goto	u2261
  3589     007C  287E               	goto	u2260
  3590     007D                     u2261:
  3591     007D  2891               	goto	l77
  3592     007E                     u2260:
  3593     007E                     l2096:
  3594     007E  19C0               	btfsc	_csFlag,3
  3595     007F  2881               	goto	u2271
  3596     0080  2882               	goto	u2270
  3597     0081                     u2271:
  3598     0081  2891               	goto	l77
  3599     0082                     u2270:
  3600     0082                     l2098:
  3601     0082  1940               	btfsc	_csFlag,2
  3602     0083  2885               	goto	u2281
  3603     0084  2886               	goto	u2280
  3604     0085                     u2281:
  3605     0085  2891               	goto	l77
  3606     0086                     u2280:
  3607     0086                     l2100:
  3608     0086  1E40               	btfss	_csFlag,4
  3609     0087  2889               	goto	u2291
  3610     0088  288A               	goto	u2290
  3611     0089                     u2291:
  3612     0089  2891               	goto	l77
  3613     008A                     u2290:
  3614     008A                     l78:	
  3615                           ;D:\yiming\00work\TY1475_HIGH_R_V03.X\main.c: 323:              csFlag.DRL == 1) {;D:\yi
      +                          ming\00work\TY1475_HIGH_R_V03.X\main.c: 325:     do { LATCbits.LATC1 = 0; } while(0);
  3616                           
  3617     008A  0022               	movlb	2	; select bank2
  3618     008B  108E               	bcf	14,1	;volatile
  3619     008C                     l80:	
  3620                           ;D:\yiming\00work\TY1475_HIGH_R_V03.X\main.c: 326:     do { LATAbits.LATA0 = 0; } while(
      +                          0);
  3621                           
  3622     008C  100C               	bcf	12,0	;volatile
  3623     008D                     l2102:
  3624                           
  3625                           ;D:\yiming\00work\TY1475_HIGH_R_V03.X\main.c: 327:     DRL_ON();
  3626     008D  3183  23F0  3180   	fcall	_DRL_ON
  3627                           
  3628                           ;D:\yiming\00work\TY1475_HIGH_R_V03.X\main.c: 328:   } else if (csFlag.RunLight == 0 && 
      +                          csFlag.LoBeam == 0 && csFlag.HiBeam == 1 &&
  3629     0090  29B1               	goto	l2216
  3630     0091                     l77:
  3631     0091  1AC0               	btfsc	_csFlag,5
  3632     0092  2894               	goto	u2301
  3633     0093  2895               	goto	u2300
  3634     0094                     u2301:
  3635     0094  28A5               	goto	l83
  3636     0095                     u2300:
  3637     0095                     l2104:
  3638     0095  19C0               	btfsc	_csFlag,3
  3639     0096  2898               	goto	u2311
  3640     0097  2899               	goto	u2310
  3641     0098                     u2311:
  3642     0098  28A5               	goto	l83
  3643     0099                     u2310:
  3644     0099                     l2106:
  3645     0099  1D40               	btfss	_csFlag,2
  3646     009A  289C               	goto	u2321
  3647     009B  289D               	goto	u2320
  3648     009C                     u2321:
  3649     009C  28A5               	goto	l83
  3650     009D                     u2320:
  3651     009D                     l2108:
  3652     009D  1A40               	btfsc	_csFlag,4
  3653     009E  28A0               	goto	u2331
  3654     009F  28A1               	goto	u2330
  3655     00A0                     u2331:
  3656     00A0  28A5               	goto	l83
  3657     00A1                     u2330:
  3658     00A1                     l84:	
  3659                           ;D:\yiming\00work\TY1475_HIGH_R_V03.X\main.c: 329:              csFlag.DRL == 0) {;D:\yi
      +                          ming\00work\TY1475_HIGH_R_V03.X\main.c: 331:     do { LATCbits.LATC1 = 0; } while(0);
  3660                           
  3661     00A1  0022               	movlb	2	; select bank2
  3662     00A2  108E               	bcf	14,1	;volatile
  3663     00A3                     l86:	
  3664                           ;D:\yiming\00work\TY1475_HIGH_R_V03.X\main.c: 332:     do { LATAbits.LATA0 = 1; } while(
      +                          0);
  3665                           
  3666     00A3  140C               	bsf	12,0	;volatile
  3667     00A4  2872               	goto	l2094
  3668     00A5                     l83:
  3669     00A5  1AC0               	btfsc	_csFlag,5
  3670     00A6  28A8               	goto	u2341
  3671     00A7  28A9               	goto	u2340
  3672     00A8                     u2341:
  3673     00A8  28B9               	goto	l89
  3674     00A9                     u2340:
  3675     00A9                     l2112:
  3676     00A9  19C0               	btfsc	_csFlag,3
  3677     00AA  28AC               	goto	u2351
  3678     00AB  28AD               	goto	u2350
  3679     00AC                     u2351:
  3680     00AC  28B9               	goto	l89
  3681     00AD                     u2350:
  3682     00AD                     l2114:
  3683     00AD  1D40               	btfss	_csFlag,2
  3684     00AE  28B0               	goto	u2361
  3685     00AF  28B1               	goto	u2360
  3686     00B0                     u2361:
  3687     00B0  28B9               	goto	l89
  3688     00B1                     u2360:
  3689     00B1                     l2116:
  3690     00B1  1E40               	btfss	_csFlag,4
  3691     00B2  28B4               	goto	u2371
  3692     00B3  28B5               	goto	u2370
  3693     00B4                     u2371:
  3694     00B4  28B9               	goto	l89
  3695     00B5                     u2370:
  3696     00B5                     l90:	
  3697                           ;D:\yiming\00work\TY1475_HIGH_R_V03.X\main.c: 335:              csFlag.DRL == 1) {;D:\yi
      +                          ming\00work\TY1475_HIGH_R_V03.X\main.c: 337:     do { LATCbits.LATC1 = 0; } while(0);
  3698                           
  3699     00B5  0022               	movlb	2	; select bank2
  3700     00B6  108E               	bcf	14,1	;volatile
  3701     00B7                     l92:	
  3702                           ;D:\yiming\00work\TY1475_HIGH_R_V03.X\main.c: 338:     do { LATAbits.LATA0 = 0; } while(
      +                          0);
  3703                           
  3704     00B7  100C               	bcf	12,0	;volatile
  3705     00B8  288D               	goto	l2102
  3706     00B9                     l89:
  3707     00B9  1AC0               	btfsc	_csFlag,5
  3708     00BA  28BC               	goto	u2381
  3709     00BB  28BD               	goto	u2380
  3710     00BC                     u2381:
  3711     00BC  28CD               	goto	l95
  3712     00BD                     u2380:
  3713     00BD                     l2120:
  3714     00BD  1DC0               	btfss	_csFlag,3
  3715     00BE  28C0               	goto	u2391
  3716     00BF  28C1               	goto	u2390
  3717     00C0                     u2391:
  3718     00C0  28CD               	goto	l95
  3719     00C1                     u2390:
  3720     00C1                     l2122:
  3721     00C1  1940               	btfsc	_csFlag,2
  3722     00C2  28C4               	goto	u2401
  3723     00C3  28C5               	goto	u2400
  3724     00C4                     u2401:
  3725     00C4  28CD               	goto	l95
  3726     00C5                     u2400:
  3727     00C5                     l2124:
  3728     00C5  1A40               	btfsc	_csFlag,4
  3729     00C6  28C8               	goto	u2411
  3730     00C7  28C9               	goto	u2410
  3731     00C8                     u2411:
  3732     00C8  28CD               	goto	l95
  3733     00C9                     u2410:
  3734     00C9                     l96:	
  3735                           ;D:\yiming\00work\TY1475_HIGH_R_V03.X\main.c: 341:              csFlag.DRL == 0) {;D:\yi
      +                          ming\00work\TY1475_HIGH_R_V03.X\main.c: 343:     do { LATCbits.LATC1 = 1; } while(0);
  3736                           
  3737     00C9  0022               	movlb	2	; select bank2
  3738     00CA  148E               	bsf	14,1	;volatile
  3739     00CB                     l98:	
  3740                           ;D:\yiming\00work\TY1475_HIGH_R_V03.X\main.c: 344:     do { LATAbits.LATA0 = 0; } while(
      +                          0);
  3741                           
  3742     00CB  100C               	bcf	12,0	;volatile
  3743     00CC  2872               	goto	l2094
  3744     00CD                     l95:
  3745     00CD  1AC0               	btfsc	_csFlag,5
  3746     00CE  28D0               	goto	u2421
  3747     00CF  28D1               	goto	u2420
  3748     00D0                     u2421:
  3749     00D0  28E1               	goto	l101
  3750     00D1                     u2420:
  3751     00D1                     l2128:
  3752     00D1  1DC0               	btfss	_csFlag,3
  3753     00D2  28D4               	goto	u2431
  3754     00D3  28D5               	goto	u2430
  3755     00D4                     u2431:
  3756     00D4  28E1               	goto	l101
  3757     00D5                     u2430:
  3758     00D5                     l2130:
  3759     00D5  1940               	btfsc	_csFlag,2
  3760     00D6  28D8               	goto	u2441
  3761     00D7  28D9               	goto	u2440
  3762     00D8                     u2441:
  3763     00D8  28E1               	goto	l101
  3764     00D9                     u2440:
  3765     00D9                     l2132:
  3766     00D9  1E40               	btfss	_csFlag,4
  3767     00DA  28DC               	goto	u2451
  3768     00DB  28DD               	goto	u2450
  3769     00DC                     u2451:
  3770     00DC  28E1               	goto	l101
  3771     00DD                     u2450:
  3772     00DD                     l102:	
  3773                           ;D:\yiming\00work\TY1475_HIGH_R_V03.X\main.c: 347:              csFlag.DRL == 1) {;D:\yi
      +                          ming\00work\TY1475_HIGH_R_V03.X\main.c: 349:     do { LATCbits.LATC1 = 1; } while(0);
  3774                           
  3775     00DD  0022               	movlb	2	; select bank2
  3776     00DE  148E               	bsf	14,1	;volatile
  3777     00DF                     l104:	
  3778                           ;D:\yiming\00work\TY1475_HIGH_R_V03.X\main.c: 350:     do { LATAbits.LATA0 = 0; } while(
      +                          0);
  3779                           
  3780     00DF  100C               	bcf	12,0	;volatile
  3781     00E0  2872               	goto	l2094
  3782     00E1                     l101:
  3783     00E1  1AC0               	btfsc	_csFlag,5
  3784     00E2  28E4               	goto	u2461
  3785     00E3  28E5               	goto	u2460
  3786     00E4                     u2461:
  3787     00E4  28F5               	goto	l107
  3788     00E5                     u2460:
  3789     00E5                     l2136:
  3790     00E5  1DC0               	btfss	_csFlag,3
  3791     00E6  28E8               	goto	u2471
  3792     00E7  28E9               	goto	u2470
  3793     00E8                     u2471:
  3794     00E8  28F5               	goto	l107
  3795     00E9                     u2470:
  3796     00E9                     l2138:
  3797     00E9  1D40               	btfss	_csFlag,2
  3798     00EA  28EC               	goto	u2481
  3799     00EB  28ED               	goto	u2480
  3800     00EC                     u2481:
  3801     00EC  28F5               	goto	l107
  3802     00ED                     u2480:
  3803     00ED                     l2140:
  3804     00ED  1A40               	btfsc	_csFlag,4
  3805     00EE  28F0               	goto	u2491
  3806     00EF  28F1               	goto	u2490
  3807     00F0                     u2491:
  3808     00F0  28F5               	goto	l107
  3809     00F1                     u2490:
  3810     00F1                     l108:	
  3811                           ;D:\yiming\00work\TY1475_HIGH_R_V03.X\main.c: 354:              csFlag.DRL == 0) {;D:\yi
      +                          ming\00work\TY1475_HIGH_R_V03.X\main.c: 356:     do { LATCbits.LATC1 = 1; } while(0);
  3812                           
  3813     00F1  0022               	movlb	2	; select bank2
  3814     00F2  148E               	bsf	14,1	;volatile
  3815     00F3                     l110:	
  3816                           ;D:\yiming\00work\TY1475_HIGH_R_V03.X\main.c: 357:     do { LATAbits.LATA0 = 1; } while(
      +                          0);
  3817                           
  3818     00F3  140C               	bsf	12,0	;volatile
  3819     00F4  2872               	goto	l2094
  3820     00F5                     l107:
  3821     00F5  1AC0               	btfsc	_csFlag,5
  3822     00F6  28F8               	goto	u2501
  3823     00F7  28F9               	goto	u2500
  3824     00F8                     u2501:
  3825     00F8  2909               	goto	l113
  3826     00F9                     u2500:
  3827     00F9                     l2144:
  3828     00F9  1DC0               	btfss	_csFlag,3
  3829     00FA  28FC               	goto	u2511
  3830     00FB  28FD               	goto	u2510
  3831     00FC                     u2511:
  3832     00FC  2909               	goto	l113
  3833     00FD                     u2510:
  3834     00FD                     l2146:
  3835     00FD  1D40               	btfss	_csFlag,2
  3836     00FE  2900               	goto	u2521
  3837     00FF  2901               	goto	u2520
  3838     0100                     u2521:
  3839     0100  2909               	goto	l113
  3840     0101                     u2520:
  3841     0101                     l2148:
  3842     0101  1E40               	btfss	_csFlag,4
  3843     0102  2904               	goto	u2531
  3844     0103  2905               	goto	u2530
  3845     0104                     u2531:
  3846     0104  2909               	goto	l113
  3847     0105                     u2530:
  3848     0105                     l114:	
  3849                           ;D:\yiming\00work\TY1475_HIGH_R_V03.X\main.c: 360:              csFlag.DRL == 1) {;D:\yi
      +                          ming\00work\TY1475_HIGH_R_V03.X\main.c: 362:     do { LATCbits.LATC1 = 1; } while(0);
  3850                           
  3851     0105  0022               	movlb	2	; select bank2
  3852     0106  148E               	bsf	14,1	;volatile
  3853     0107                     l116:	
  3854                           ;D:\yiming\00work\TY1475_HIGH_R_V03.X\main.c: 363:     do { LATAbits.LATA0 = 1; } while(
      +                          0);
  3855                           
  3856     0107  140C               	bsf	12,0	;volatile
  3857     0108  2872               	goto	l2094
  3858     0109                     l113:
  3859     0109  1EC0               	btfss	_csFlag,5
  3860     010A  290C               	goto	u2541
  3861     010B  290D               	goto	u2540
  3862     010C                     u2541:
  3863     010C  2925               	goto	l119
  3864     010D                     u2540:
  3865     010D                     l2152:
  3866     010D  19C0               	btfsc	_csFlag,3
  3867     010E  2910               	goto	u2551
  3868     010F  2911               	goto	u2550
  3869     0110                     u2551:
  3870     0110  2925               	goto	l119
  3871     0111                     u2550:
  3872     0111                     l2154:
  3873     0111  1940               	btfsc	_csFlag,2
  3874     0112  2914               	goto	u2561
  3875     0113  2915               	goto	u2560
  3876     0114                     u2561:
  3877     0114  2925               	goto	l119
  3878     0115                     u2560:
  3879     0115                     l2156:
  3880     0115  1A40               	btfsc	_csFlag,4
  3881     0116  2918               	goto	u2571
  3882     0117  2919               	goto	u2570
  3883     0118                     u2571:
  3884     0118  2925               	goto	l119
  3885     0119                     u2570:
  3886     0119                     l120:	
  3887                           ;D:\yiming\00work\TY1475_HIGH_R_V03.X\main.c: 367:              csFlag.DRL == 0) {;D:\yi
      +                          ming\00work\TY1475_HIGH_R_V03.X\main.c: 369:     do { LATCbits.LATC1 = 0; } while(0);
  3888                           
  3889     0119  0022               	movlb	2	; select bank2
  3890     011A  108E               	bcf	14,1	;volatile
  3891     011B                     l122:	
  3892                           ;D:\yiming\00work\TY1475_HIGH_R_V03.X\main.c: 370:     do { LATAbits.LATA0 = 0; } while(
      +                          0);
  3893                           
  3894     011B  100C               	bcf	12,0	;volatile
  3895     011C                     l2158:
  3896                           
  3897                           ;D:\yiming\00work\TY1475_HIGH_R_V03.X\main.c: 371:     EPWM1_LoadDutyValue((50));
  3898     011C  3032               	movlw	50
  3899     011D  0020               	movlb	0	; select bank0
  3900     011E  00C5               	movwf	EPWM1_LoadDutyValue@dutyValue
  3901     011F  3000               	movlw	0
  3902     0120  00C6               	movwf	EPWM1_LoadDutyValue@dutyValue+1
  3903     0121  3184  240E  3180   	fcall	_EPWM1_LoadDutyValue
  3904                           
  3905                           ;D:\yiming\00work\TY1475_HIGH_R_V03.X\main.c: 372:   } else if (csFlag.RunLight == 1 && 
      +                          csFlag.LoBeam == 0 && csFlag.HiBeam == 0 &&
  3906     0124  29B1               	goto	l2216
  3907     0125                     l119:
  3908     0125  1EC0               	btfss	_csFlag,5
  3909     0126  2928               	goto	u2581
  3910     0127  2929               	goto	u2580
  3911     0128                     u2581:
  3912     0128  2939               	goto	l125
  3913     0129                     u2580:
  3914     0129                     l2160:
  3915     0129  19C0               	btfsc	_csFlag,3
  3916     012A  292C               	goto	u2591
  3917     012B  292D               	goto	u2590
  3918     012C                     u2591:
  3919     012C  2939               	goto	l125
  3920     012D                     u2590:
  3921     012D                     l2162:
  3922     012D  1940               	btfsc	_csFlag,2
  3923     012E  2930               	goto	u2601
  3924     012F  2931               	goto	u2600
  3925     0130                     u2601:
  3926     0130  2939               	goto	l125
  3927     0131                     u2600:
  3928     0131                     l2164:
  3929     0131  1E40               	btfss	_csFlag,4
  3930     0132  2934               	goto	u2611
  3931     0133  2935               	goto	u2610
  3932     0134                     u2611:
  3933     0134  2939               	goto	l125
  3934     0135                     u2610:
  3935     0135                     l126:	
  3936                           ;D:\yiming\00work\TY1475_HIGH_R_V03.X\main.c: 373:              csFlag.DRL == 1) {;D:\yi
      +                          ming\00work\TY1475_HIGH_R_V03.X\main.c: 375:     do { LATCbits.LATC1 = 0; } while(0);
  3937                           
  3938     0135  0022               	movlb	2	; select bank2
  3939     0136  108E               	bcf	14,1	;volatile
  3940     0137                     l128:	
  3941                           ;D:\yiming\00work\TY1475_HIGH_R_V03.X\main.c: 376:     do { LATAbits.LATA0 = 0; } while(
      +                          0);
  3942                           
  3943     0137  100C               	bcf	12,0	;volatile
  3944     0138  288D               	goto	l2102
  3945     0139                     l125:
  3946     0139  1EC0               	btfss	_csFlag,5
  3947     013A  293C               	goto	u2621
  3948     013B  293D               	goto	u2620
  3949     013C                     u2621:
  3950     013C  294D               	goto	l131
  3951     013D                     u2620:
  3952     013D                     l2168:
  3953     013D  19C0               	btfsc	_csFlag,3
  3954     013E  2940               	goto	u2631
  3955     013F  2941               	goto	u2630
  3956     0140                     u2631:
  3957     0140  294D               	goto	l131
  3958     0141                     u2630:
  3959     0141                     l2170:
  3960     0141  1D40               	btfss	_csFlag,2
  3961     0142  2944               	goto	u2641
  3962     0143  2945               	goto	u2640
  3963     0144                     u2641:
  3964     0144  294D               	goto	l131
  3965     0145                     u2640:
  3966     0145                     l2172:
  3967     0145  1A40               	btfsc	_csFlag,4
  3968     0146  2948               	goto	u2651
  3969     0147  2949               	goto	u2650
  3970     0148                     u2651:
  3971     0148  294D               	goto	l131
  3972     0149                     u2650:
  3973     0149                     l132:	
  3974                           ;D:\yiming\00work\TY1475_HIGH_R_V03.X\main.c: 379:              csFlag.DRL == 0) {;D:\yi
      +                          ming\00work\TY1475_HIGH_R_V03.X\main.c: 381:     do { LATCbits.LATC1 = 0; } while(0);
  3975                           
  3976     0149  0022               	movlb	2	; select bank2
  3977     014A  108E               	bcf	14,1	;volatile
  3978     014B                     l134:	
  3979                           ;D:\yiming\00work\TY1475_HIGH_R_V03.X\main.c: 382:     do { LATAbits.LATA0 = 0; } while(
      +                          0);
  3980                           
  3981     014B  100C               	bcf	12,0	;volatile
  3982     014C  291C               	goto	l2158
  3983     014D                     l131:
  3984     014D  1EC0               	btfss	_csFlag,5
  3985     014E  2950               	goto	u2661
  3986     014F  2951               	goto	u2660
  3987     0150                     u2661:
  3988     0150  2961               	goto	l137
  3989     0151                     u2660:
  3990     0151                     l2176:
  3991     0151  19C0               	btfsc	_csFlag,3
  3992     0152  2954               	goto	u2671
  3993     0153  2955               	goto	u2670
  3994     0154                     u2671:
  3995     0154  2961               	goto	l137
  3996     0155                     u2670:
  3997     0155                     l2178:
  3998     0155  1D40               	btfss	_csFlag,2
  3999     0156  2958               	goto	u2681
  4000     0157  2959               	goto	u2680
  4001     0158                     u2681:
  4002     0158  2961               	goto	l137
  4003     0159                     u2680:
  4004     0159                     l2180:
  4005     0159  1E40               	btfss	_csFlag,4
  4006     015A  295C               	goto	u2691
  4007     015B  295D               	goto	u2690
  4008     015C                     u2691:
  4009     015C  2961               	goto	l137
  4010     015D                     u2690:
  4011     015D                     l138:	
  4012                           ;D:\yiming\00work\TY1475_HIGH_R_V03.X\main.c: 385:              csFlag.DRL == 1) {;D:\yi
      +                          ming\00work\TY1475_HIGH_R_V03.X\main.c: 387:     do { LATCbits.LATC1 = 0; } while(0);
  4013                           
  4014     015D  0022               	movlb	2	; select bank2
  4015     015E  108E               	bcf	14,1	;volatile
  4016     015F                     l140:	
  4017                           ;D:\yiming\00work\TY1475_HIGH_R_V03.X\main.c: 388:     do { LATAbits.LATA0 = 0; } while(
      +                          0);
  4018                           
  4019     015F  100C               	bcf	12,0	;volatile
  4020     0160  291C               	goto	l2158
  4021     0161                     l137:
  4022     0161  1EC0               	btfss	_csFlag,5
  4023     0162  2964               	goto	u2701
  4024     0163  2965               	goto	u2700
  4025     0164                     u2701:
  4026     0164  2975               	goto	l143
  4027     0165                     u2700:
  4028     0165                     l2184:
  4029     0165  1DC0               	btfss	_csFlag,3
  4030     0166  2968               	goto	u2711
  4031     0167  2969               	goto	u2710
  4032     0168                     u2711:
  4033     0168  2975               	goto	l143
  4034     0169                     u2710:
  4035     0169                     l2186:
  4036     0169  1940               	btfsc	_csFlag,2
  4037     016A  296C               	goto	u2721
  4038     016B  296D               	goto	u2720
  4039     016C                     u2721:
  4040     016C  2975               	goto	l143
  4041     016D                     u2720:
  4042     016D                     l2188:
  4043     016D  1A40               	btfsc	_csFlag,4
  4044     016E  2970               	goto	u2731
  4045     016F  2971               	goto	u2730
  4046     0170                     u2731:
  4047     0170  2975               	goto	l143
  4048     0171                     u2730:
  4049     0171                     l144:	
  4050                           ;D:\yiming\00work\TY1475_HIGH_R_V03.X\main.c: 391:              csFlag.DRL == 0) {;D:\yi
      +                          ming\00work\TY1475_HIGH_R_V03.X\main.c: 393:     do { LATCbits.LATC1 = 1; } while(0);
  4051                           
  4052     0171  0022               	movlb	2	; select bank2
  4053     0172  148E               	bsf	14,1	;volatile
  4054     0173                     l146:	
  4055                           ;D:\yiming\00work\TY1475_HIGH_R_V03.X\main.c: 394:     do { LATAbits.LATA0 = 0; } while(
      +                          0);
  4056                           
  4057     0173  100C               	bcf	12,0	;volatile
  4058     0174  291C               	goto	l2158
  4059     0175                     l143:
  4060     0175  1EC0               	btfss	_csFlag,5
  4061     0176  2978               	goto	u2741
  4062     0177  2979               	goto	u2740
  4063     0178                     u2741:
  4064     0178  2989               	goto	l149
  4065     0179                     u2740:
  4066     0179                     l2192:
  4067     0179  1DC0               	btfss	_csFlag,3
  4068     017A  297C               	goto	u2751
  4069     017B  297D               	goto	u2750
  4070     017C                     u2751:
  4071     017C  2989               	goto	l149
  4072     017D                     u2750:
  4073     017D                     l2194:
  4074     017D  1940               	btfsc	_csFlag,2
  4075     017E  2980               	goto	u2761
  4076     017F  2981               	goto	u2760
  4077     0180                     u2761:
  4078     0180  2989               	goto	l149
  4079     0181                     u2760:
  4080     0181                     l2196:
  4081     0181  1E40               	btfss	_csFlag,4
  4082     0182  2984               	goto	u2771
  4083     0183  2985               	goto	u2770
  4084     0184                     u2771:
  4085     0184  2989               	goto	l149
  4086     0185                     u2770:
  4087     0185                     l150:	
  4088                           ;D:\yiming\00work\TY1475_HIGH_R_V03.X\main.c: 397:              csFlag.DRL == 1) {;D:\yi
      +                          ming\00work\TY1475_HIGH_R_V03.X\main.c: 399:     do { LATCbits.LATC1 = 1; } while(0);
  4089                           
  4090     0185  0022               	movlb	2	; select bank2
  4091     0186  148E               	bsf	14,1	;volatile
  4092     0187                     l152:	
  4093                           ;D:\yiming\00work\TY1475_HIGH_R_V03.X\main.c: 400:     do { LATAbits.LATA0 = 0; } while(
      +                          0);
  4094                           
  4095     0187  100C               	bcf	12,0	;volatile
  4096     0188  291C               	goto	l2158
  4097     0189                     l149:
  4098     0189  1EC0               	btfss	_csFlag,5
  4099     018A  298C               	goto	u2781
  4100     018B  298D               	goto	u2780
  4101     018C                     u2781:
  4102     018C  299D               	goto	l155
  4103     018D                     u2780:
  4104     018D                     l2200:
  4105     018D  1DC0               	btfss	_csFlag,3
  4106     018E  2990               	goto	u2791
  4107     018F  2991               	goto	u2790
  4108     0190                     u2791:
  4109     0190  299D               	goto	l155
  4110     0191                     u2790:
  4111     0191                     l2202:
  4112     0191  1D40               	btfss	_csFlag,2
  4113     0192  2994               	goto	u2801
  4114     0193  2995               	goto	u2800
  4115     0194                     u2801:
  4116     0194  299D               	goto	l155
  4117     0195                     u2800:
  4118     0195                     l2204:
  4119     0195  1A40               	btfsc	_csFlag,4
  4120     0196  2998               	goto	u2811
  4121     0197  2999               	goto	u2810
  4122     0198                     u2811:
  4123     0198  299D               	goto	l155
  4124     0199                     u2810:
  4125     0199                     l156:	
  4126                           ;D:\yiming\00work\TY1475_HIGH_R_V03.X\main.c: 403:              csFlag.DRL == 0) {;D:\yi
      +                          ming\00work\TY1475_HIGH_R_V03.X\main.c: 405:     do { LATCbits.LATC1 = 1; } while(0);
  4127                           
  4128     0199  0022               	movlb	2	; select bank2
  4129     019A  148E               	bsf	14,1	;volatile
  4130     019B                     l158:	
  4131                           ;D:\yiming\00work\TY1475_HIGH_R_V03.X\main.c: 406:     do { LATAbits.LATA0 = 1; } while(
      +                          0);
  4132                           
  4133     019B  140C               	bsf	12,0	;volatile
  4134     019C  291C               	goto	l2158
  4135     019D                     l155:
  4136     019D  1EC0               	btfss	_csFlag,5
  4137     019E  29A0               	goto	u2821
  4138     019F  29A1               	goto	u2820
  4139     01A0                     u2821:
  4140     01A0  29B1               	goto	l148
  4141     01A1                     u2820:
  4142     01A1                     l2208:
  4143     01A1  1DC0               	btfss	_csFlag,3
  4144     01A2  29A4               	goto	u2831
  4145     01A3  29A5               	goto	u2830
  4146     01A4                     u2831:
  4147     01A4  29B1               	goto	l148
  4148     01A5                     u2830:
  4149     01A5                     l2210:
  4150     01A5  1D40               	btfss	_csFlag,2
  4151     01A6  29A8               	goto	u2841
  4152     01A7  29A9               	goto	u2840
  4153     01A8                     u2841:
  4154     01A8  29B1               	goto	l148
  4155     01A9                     u2840:
  4156     01A9                     l2212:
  4157     01A9  1E40               	btfss	_csFlag,4
  4158     01AA  29AC               	goto	u2851
  4159     01AB  29AD               	goto	u2850
  4160     01AC                     u2851:
  4161     01AC  29B1               	goto	l148
  4162     01AD                     u2850:
  4163     01AD                     l162:	
  4164                           ;D:\yiming\00work\TY1475_HIGH_R_V03.X\main.c: 409:              csFlag.DRL == 1) {;D:\yi
      +                          ming\00work\TY1475_HIGH_R_V03.X\main.c: 411:     do { LATCbits.LATC1 = 1; } while(0);
  4165                           
  4166     01AD  0022               	movlb	2	; select bank2
  4167     01AE  148E               	bsf	14,1	;volatile
  4168     01AF                     l164:	
  4169                           ;D:\yiming\00work\TY1475_HIGH_R_V03.X\main.c: 412:     do { LATAbits.LATA0 = 1; } while(
      +                          0);
  4170                           
  4171     01AF  140C               	bsf	12,0	;volatile
  4172     01B0  291C               	goto	l2158
  4173     01B1                     l148:
  4174     01B1                     l2216:
  4175                           
  4176                           ;D:\yiming\00work\TY1475_HIGH_R_V03.X\main.c: 416:   for (uint8_t i = 0; i < 11; i++) {
  4177     01B1  0020               	movlb	0	; select bank0
  4178     01B2  01CD               	clrf	LED_output@i
  4179     01B3                     l2222:
  4180                           
  4181                           ;D:\yiming\00work\TY1475_HIGH_R_V03.X\main.c: 417:     data_buf[i] = 0;
  4182     01B3  084D               	movf	LED_output@i,w
  4183     01B4  3E20               	addlw	(low (_data_buf| 0))& (0+255)
  4184     01B5  0086               	movwf	6
  4185     01B6  0187               	clrf	7
  4186     01B7  0181               	clrf	1
  4187     01B8                     l2224:
  4188                           
  4189                           ;D:\yiming\00work\TY1475_HIGH_R_V03.X\main.c: 418:   }
  4190     01B8  3001               	movlw	1
  4191     01B9  00CB               	movwf	??_LED_output
  4192     01BA  084B               	movf	??_LED_output,w
  4193     01BB  07CD               	addwf	LED_output@i,f
  4194     01BC                     l2226:
  4195     01BC  300B               	movlw	11
  4196     01BD  024D               	subwf	LED_output@i,w
  4197     01BE  1C03               	skipc
  4198     01BF  29C1               	goto	u2861
  4199     01C0  29C2               	goto	u2860
  4200     01C1                     u2861:
  4201     01C1  29B3               	goto	l2222
  4202     01C2                     u2860:
  4203     01C2                     l64:
  4204     01C2  0008               	return
  4205     01C3                     __end_of_LED_output:
  4206                           
  4207                           	psect	text14
  4208     03F0                     __ptext14:	
  4209 ;; *************** function _DRL_ON *****************
  4210 ;; Defined at:
  4211 ;;		line 270 in file "D:\yiming\00work\TY1475_HIGH_R_V03.X\main.c"
  4212 ;; Parameters:    Size  Location     Type
  4213 ;;		None
  4214 ;; Auto vars:     Size  Location     Type
  4215 ;;  pwm_duty        2    4[BANK0 ] unsigned short 
  4216 ;; Return value:  Size  Location     Type
  4217 ;;                  1    wreg      void 
  4218 ;; Registers used:
  4219 ;;		wreg, status,2, status,0, pclath, cstack
  4220 ;; Tracked objects:
  4221 ;;		On entry : 0/0
  4222 ;;		On exit  : 0/0
  4223 ;;		Unchanged: 0/0
  4224 ;; Data sizes:     COMMON   BANK0   BANK1   BANK2   BANK3   BANK4   BANK5   BANK6
  4225 ;;      Params:         0       0       0       0       0       0       0       0
  4226 ;;      Locals:         0       2       0       0       0       0       0       0
  4227 ;;      Temps:          0       0       0       0       0       0       0       0
  4228 ;;      Totals:         0       2       0       0       0       0       0       0
  4229 ;;Total ram usage:        2 bytes
  4230 ;; Hardware stack levels used: 1
  4231 ;; Hardware stack levels required when called: 5
  4232 ;; This function calls:
  4233 ;;		_EPWM1_LoadDutyValue
  4234 ;; This function is called by:
  4235 ;;		_LED_output
  4236 ;; This function uses a non-reentrant model
  4237 ;;
  4238                           
  4239     03F0                     _DRL_ON:	
  4240                           ;psect for function _DRL_ON
  4241                           
  4242     03F0                     l1972:	
  4243                           ;incstack = 0
  4244                           ; Regs used in _DRL_ON: [wreg+status,2+status,0+pclath+cstack]
  4245                           
  4246                           
  4247                           ;D:\yiming\00work\TY1475_HIGH_R_V03.X\main.c: 271:   uint16_t pwm_duty = (500);
  4248     03F0  30F4               	movlw	244
  4249     03F1  0020               	movlb	0	; select bank0
  4250     03F2  00C9               	movwf	DRL_ON@pwm_duty
  4251     03F3  3001               	movlw	1
  4252     03F4  00CA               	movwf	DRL_ON@pwm_duty+1
  4253     03F5                     l1974:
  4254                           
  4255                           ;D:\yiming\00work\TY1475_HIGH_R_V03.X\main.c: 273:   if (fLampSide == 0) {
  4256     03F5  083C               	movf	_fLampSide,w
  4257     03F6  1D03               	btfss	3,2
  4258     03F7  2BF9               	goto	u2141
  4259     03F8  2BFA               	goto	u2140
  4260     03F9                     u2141:
  4261     03F9  2C01               	goto	l56
  4262     03FA                     u2140:
  4263     03FA                     l1976:
  4264                           
  4265                           ;D:\yiming\00work\TY1475_HIGH_R_V03.X\main.c: 275:     if (csFlag.turnLight_R == 1)
  4266     03FA  1C40               	btfss	_csFlag,0
  4267     03FB  2BFD               	goto	u2151
  4268     03FC  2BFE               	goto	u2150
  4269     03FD                     u2151:
  4270     03FD  2C06               	goto	l1982
  4271     03FE                     u2150:
  4272     03FE                     l1978:
  4273                           
  4274                           ;D:\yiming\00work\TY1475_HIGH_R_V03.X\main.c: 276:       pwm_duty = (0);
  4275     03FE  01C9               	clrf	DRL_ON@pwm_duty
  4276     03FF  01CA               	clrf	DRL_ON@pwm_duty+1
  4277     0400  2C06               	goto	l1982
  4278     0401                     l56:
  4279                           
  4280                           ;D:\yiming\00work\TY1475_HIGH_R_V03.X\main.c: 279:     if (csFlag.turnLight_L == 1)
  4281     0401  1CC0               	btfss	_csFlag,1
  4282     0402  2C04               	goto	u2161
  4283     0403  2C05               	goto	u2160
  4284     0404                     u2161:
  4285     0404  2C06               	goto	l1982
  4286     0405                     u2160:
  4287     0405  2BFE               	goto	l1978
  4288     0406                     l1982:
  4289                           
  4290                           ;D:\yiming\00work\TY1475_HIGH_R_V03.X\main.c: 293:   EPWM1_LoadDutyValue(pwm_duty);
  4291     0406  084A               	movf	DRL_ON@pwm_duty+1,w
  4292     0407  00C6               	movwf	EPWM1_LoadDutyValue@dutyValue+1
  4293     0408  0849               	movf	DRL_ON@pwm_duty,w
  4294     0409  00C5               	movwf	EPWM1_LoadDutyValue@dutyValue
  4295     040A  3184  240E  3183   	fcall	_EPWM1_LoadDutyValue
  4296     040D                     l60:
  4297     040D  0008               	return
  4298     040E                     __end_of_DRL_ON:
  4299                           
  4300                           	psect	text15
  4301     03B0                     __ptext15:	
  4302 ;; *************** function _Exception_handling *****************
  4303 ;; Defined at:
  4304 ;;		line 256 in file "D:\yiming\00work\TY1475_HIGH_R_V03.X\main.c"
  4305 ;; Parameters:    Size  Location     Type
  4306 ;;		None
  4307 ;; Auto vars:     Size  Location     Type
  4308 ;;		None
  4309 ;; Return value:  Size  Location     Type
  4310 ;;                  1    wreg      void 
  4311 ;; Registers used:
  4312 ;;		wreg, status,2, status,0, pclath, cstack
  4313 ;; Tracked objects:
  4314 ;;		On entry : 0/0
  4315 ;;		On exit  : 0/0
  4316 ;;		Unchanged: 0/0
  4317 ;; Data sizes:     COMMON   BANK0   BANK1   BANK2   BANK3   BANK4   BANK5   BANK6
  4318 ;;      Params:         0       0       0       0       0       0       0       0
  4319 ;;      Locals:         0       0       0       0       0       0       0       0
  4320 ;;      Temps:          0       0       0       0       0       0       0       0
  4321 ;;      Totals:         0       0       0       0       0       0       0       0
  4322 ;;Total ram usage:        0 bytes
  4323 ;; Hardware stack levels used: 1
  4324 ;; Hardware stack levels required when called: 5
  4325 ;; This function calls:
  4326 ;;		_EPWM1_LoadDutyValue
  4327 ;; This function is called by:
  4328 ;;		_main
  4329 ;; This function uses a non-reentrant model
  4330 ;;
  4331                           
  4332     03B0                     _Exception_handling:	
  4333                           ;psect for function _Exception_handling
  4334                           
  4335     03B0                     l2068:	
  4336                           ;incstack = 0
  4337                           ; Regs used in _Exception_handling: [wreg+status,2+status,0+pclath+cstack]
  4338                           
  4339                           
  4340                           ;D:\yiming\00work\TY1475_HIGH_R_V03.X\main.c: 257:   if ((data_buf[2] == 6) && (data_buf
      +                          [10] == 0xD5)) {
  4341     03B0  3006               	movlw	6
  4342     03B1  0020               	movlb	0	; select bank0
  4343     03B2  0622               	xorwf	_data_buf+2,w
  4344     03B3  1D03               	btfss	3,2
  4345     03B4  2BB6               	goto	u2181
  4346     03B5  2BB7               	goto	u2180
  4347     03B6                     u2181:
  4348     03B6  2BD0               	goto	l2076
  4349     03B7                     u2180:
  4350     03B7                     l2070:
  4351     03B7  30D5               	movlw	213
  4352     03B8  062A               	xorwf	_data_buf+10,w
  4353     03B9  1D03               	btfss	3,2
  4354     03BA  2BBC               	goto	u2191
  4355     03BB  2BBD               	goto	u2190
  4356     03BC                     u2191:
  4357     03BC  2BD0               	goto	l2076
  4358     03BD                     u2190:
  4359     03BD                     l46:	
  4360                           ;D:\yiming\00work\TY1475_HIGH_R_V03.X\main.c: 258:     do { LATAbits.LATA3 = 1; } while(
      +                          0);
  4361                           
  4362     03BD  0022               	movlb	2	; select bank2
  4363     03BE  158C               	bsf	12,3	;volatile
  4364     03BF                     l47:
  4365                           
  4366                           ;D:\yiming\00work\TY1475_HIGH_R_V03.X\main.c: 259:     fException = 1;
  4367     03BF  0020               	movlb	0	; select bank0
  4368     03C0  01BE               	clrf	_fException
  4369     03C1  0ABE               	incf	_fException,f
  4370     03C2                     l48:	
  4371                           ;D:\yiming\00work\TY1475_HIGH_R_V03.X\main.c: 261:     do { LATCbits.LATC1 = 0; } while(
      +                          0);
  4372                           
  4373     03C2  0022               	movlb	2	; select bank2
  4374     03C3  108E               	bcf	14,1	;volatile
  4375     03C4                     l50:	
  4376                           ;D:\yiming\00work\TY1475_HIGH_R_V03.X\main.c: 262:     do { LATAbits.LATA0 = 0; } while(
      +                          0);
  4377                           
  4378     03C4  100C               	bcf	12,0	;volatile
  4379     03C5                     l2072:
  4380                           
  4381                           ;D:\yiming\00work\TY1475_HIGH_R_V03.X\main.c: 263:     EPWM1_LoadDutyValue((50));
  4382     03C5  3032               	movlw	50
  4383     03C6  0020               	movlb	0	; select bank0
  4384     03C7  00C5               	movwf	EPWM1_LoadDutyValue@dutyValue
  4385     03C8  3000               	movlw	0
  4386     03C9  00C6               	movwf	EPWM1_LoadDutyValue@dutyValue+1
  4387     03CA  3184  240E  3183   	fcall	_EPWM1_LoadDutyValue
  4388     03CD                     l2074:
  4389                           
  4390                           ;D:\yiming\00work\TY1475_HIGH_R_V03.X\main.c: 264:     T10MS_CNT = 0;
  4391     03CD  0020               	movlb	0	; select bank0
  4392     03CE  01BF               	clrf	_T10MS_CNT	;volatile
  4393                           
  4394                           ;D:\yiming\00work\TY1475_HIGH_R_V03.X\main.c: 265:   } else {
  4395     03CF  2BD1               	goto	l53
  4396     03D0                     l2076:
  4397                           
  4398                           ;D:\yiming\00work\TY1475_HIGH_R_V03.X\main.c: 266:     fException = 0;
  4399     03D0  01BE               	clrf	_fException
  4400     03D1                     l53:
  4401     03D1  0008               	return
  4402     03D2                     __end_of_Exception_handling:
  4403                           
  4404                           	psect	text16
  4405     040E                     __ptext16:	
  4406 ;; *************** function _EPWM1_LoadDutyValue *****************
  4407 ;; Defined at:
  4408 ;;		line 90 in file "D:\yiming\00work\TY1475_HIGH_R_V03.X\mcc_generated_files\epwm1.c"
  4409 ;; Parameters:    Size  Location     Type
  4410 ;;  dutyValue       2    0[BANK0 ] unsigned short 
  4411 ;; Auto vars:     Size  Location     Type
  4412 ;;		None
  4413 ;; Return value:  Size  Location     Type
  4414 ;;                  1    wreg      void 
  4415 ;; Registers used:
  4416 ;;		wreg, status,2, status,0
  4417 ;; Tracked objects:
  4418 ;;		On entry : 0/0
  4419 ;;		On exit  : 0/0
  4420 ;;		Unchanged: 0/0
  4421 ;; Data sizes:     COMMON   BANK0   BANK1   BANK2   BANK3   BANK4   BANK5   BANK6
  4422 ;;      Params:         0       2       0       0       0       0       0       0
  4423 ;;      Locals:         0       0       0       0       0       0       0       0
  4424 ;;      Temps:          0       2       0       0       0       0       0       0
  4425 ;;      Totals:         0       4       0       0       0       0       0       0
  4426 ;;Total ram usage:        4 bytes
  4427 ;; Hardware stack levels used: 1
  4428 ;; Hardware stack levels required when called: 4
  4429 ;; This function calls:
  4430 ;;		Nothing
  4431 ;; This function is called by:
  4432 ;;		_Exception_handling
  4433 ;;		_DRL_ON
  4434 ;;		_LED_output
  4435 ;;		_main
  4436 ;; This function uses a non-reentrant model
  4437 ;;
  4438                           
  4439     040E                     _EPWM1_LoadDutyValue:	
  4440                           ;psect for function _EPWM1_LoadDutyValue
  4441                           
  4442     040E                     l1968:	
  4443                           ;incstack = 0
  4444                           ; Regs used in _EPWM1_LoadDutyValue: [wreg+status,2+status,0]
  4445                           
  4446                           
  4447                           ;D:\yiming\00work\TY1475_HIGH_R_V03.X\mcc_generated_files\epwm1.c: 90: void EPWM1_LoadDu
      +                          tyValue(uint16_t dutyValue);D:\yiming\00work\TY1475_HIGH_R_V03.X\mcc_generated_files\epw
      +                          m1.c: 91: {;D:\yiming\00work\TY1475_HIGH_R_V03.X\mcc_generated_files\epwm1.c: 93:     CC
      +                          PR1L = ((dutyValue & 0x03FC)>>2);
  4448     040E  0020               	movlb	0	; select bank0
  4449     040F  0846               	movf	EPWM1_LoadDutyValue@dutyValue+1,w
  4450     0410  00C8               	movwf	??_EPWM1_LoadDutyValue+1
  4451     0411  0845               	movf	EPWM1_LoadDutyValue@dutyValue,w
  4452     0412  00C7               	movwf	??_EPWM1_LoadDutyValue
  4453     0413  36C8               	lsrf	??_EPWM1_LoadDutyValue+1,f
  4454     0414  0CC7               	rrf	??_EPWM1_LoadDutyValue,f
  4455     0415  36C8               	lsrf	??_EPWM1_LoadDutyValue+1,f
  4456     0416  0CC7               	rrf	??_EPWM1_LoadDutyValue,f
  4457     0417  0847               	movf	??_EPWM1_LoadDutyValue,w
  4458     0418  0025               	movlb	5	; select bank5
  4459     0419  0091               	movwf	17	;volatile
  4460                           
  4461                           ;D:\yiming\00work\TY1475_HIGH_R_V03.X\mcc_generated_files\epwm1.c: 96:     CCP1CON = ((u
      +                          int8_t)(CCP1CON & 0xCF) | ((dutyValue & 0x0003)<<4));
  4462     041A  0020               	movlb	0	; select bank0
  4463     041B  0845               	movf	EPWM1_LoadDutyValue@dutyValue,w
  4464     041C  3903               	andlw	3
  4465     041D  00C7               	movwf	??_EPWM1_LoadDutyValue
  4466     041E  3004               	movlw	4
  4467     041F                     u2135:
  4468     041F  35C7               	lslf	??_EPWM1_LoadDutyValue,f
  4469     0420  0B89               	decfsz	9,f
  4470     0421  2C1F               	goto	u2135
  4471     0422  0025               	movlb	5	; select bank5
  4472     0423  0813               	movf	19,w	;volatile
  4473     0424  39CF               	andlw	207
  4474     0425  0020               	movlb	0	; select bank0
  4475     0426  0447               	iorwf	??_EPWM1_LoadDutyValue,w
  4476     0427  0025               	movlb	5	; select bank5
  4477     0428  0093               	movwf	19	;volatile
  4478     0429                     l313:
  4479     0429  0008               	return
  4480     042A                     __end_of_EPWM1_LoadDutyValue:
  4481                           
  4482                           	psect	intentry
  4483     0004                     __pintentry:	
  4484 ;; *************** function _INTERRUPT_InterruptManager *****************
  4485 ;; Defined at:
  4486 ;;		line 52 in file "D:\yiming\00work\TY1475_HIGH_R_V03.X\mcc_generated_files\interrupt_manager.c"
  4487 ;; Parameters:    Size  Location     Type
  4488 ;;		None
  4489 ;; Auto vars:     Size  Location     Type
  4490 ;;		None
  4491 ;; Return value:  Size  Location     Type
  4492 ;;                  1    wreg      void 
  4493 ;; Registers used:
  4494 ;;		wreg, status,2, status,0, pclath, cstack
  4495 ;; Tracked objects:
  4496 ;;		On entry : 0/0
  4497 ;;		On exit  : 0/0
  4498 ;;		Unchanged: 0/0
  4499 ;; Data sizes:     COMMON   BANK0   BANK1   BANK2   BANK3   BANK4   BANK5   BANK6
  4500 ;;      Params:         0       0       0       0       0       0       0       0
  4501 ;;      Locals:         0       0       0       0       0       0       0       0
  4502 ;;      Temps:          0       0       0       0       0       0       0       0
  4503 ;;      Totals:         0       0       0       0       0       0       0       0
  4504 ;;Total ram usage:        0 bytes
  4505 ;; Hardware stack levels used: 1
  4506 ;; Hardware stack levels required when called: 3
  4507 ;; This function calls:
  4508 ;;		_ECCP3_CaptureISR
  4509 ;;		_TMR0_ISR
  4510 ;; This function is called by:
  4511 ;;		Interrupt level 1
  4512 ;; This function uses a non-reentrant model
  4513 ;;
  4514                           
  4515     0004                     _INTERRUPT_InterruptManager:
  4516                           
  4517                           ;incstack = 0
  4518     0004  147E               	bsf	int$flags,0	;set compiler interrupt flag (level 1)
  4519                           
  4520                           ; Regs used in _INTERRUPT_InterruptManager: [wreg+status,2+status,0+pclath+cstack]
  4521     0005  3180               	pagesel	$
  4522     0006                     i1l1956:
  4523                           
  4524                           ;D:\yiming\00work\TY1475_HIGH_R_V03.X\mcc_generated_files\interrupt_manager.c: 55:     i
      +                          f(INTCONbits.TMR0IE == 1 && INTCONbits.TMR0IF == 1)
  4525     0006  1E8B               	btfss	11,5	;volatile
  4526     0007  2809               	goto	u208_21
  4527     0008  280A               	goto	u208_20
  4528     0009                     u208_21:
  4529     0009  2812               	goto	i1l328
  4530     000A                     u208_20:
  4531     000A                     i1l1958:
  4532     000A  1D0B               	btfss	11,2	;volatile
  4533     000B  280D               	goto	u209_21
  4534     000C  280E               	goto	u209_20
  4535     000D                     u209_21:
  4536     000D  2812               	goto	i1l328
  4537     000E                     u209_20:
  4538     000E                     i1l1960:
  4539                           
  4540                           ;D:\yiming\00work\TY1475_HIGH_R_V03.X\mcc_generated_files\interrupt_manager.c: 56:     {
      +                          ;D:\yiming\00work\TY1475_HIGH_R_V03.X\mcc_generated_files\interrupt_manager.c: 57:      
      +                             TMR0_ISR();
  4541     000E  3184  2443  3180   	fcall	_TMR0_ISR
  4542                           
  4543                           ;D:\yiming\00work\TY1475_HIGH_R_V03.X\mcc_generated_files\interrupt_manager.c: 58:     }
  4544     0011  2824               	goto	i1l334
  4545     0012                     i1l328:	
  4546                           ;D:\yiming\00work\TY1475_HIGH_R_V03.X\mcc_generated_files\interrupt_manager.c: 59:     e
      +                          lse if(INTCONbits.PEIE == 1)
  4547                           
  4548     0012  1F0B               	btfss	11,6	;volatile
  4549     0013  2815               	goto	u210_21
  4550     0014  2816               	goto	u210_20
  4551     0015                     u210_21:
  4552     0015  2824               	goto	i1l334
  4553     0016                     u210_20:
  4554     0016                     i1l1962:
  4555                           
  4556                           ;D:\yiming\00work\TY1475_HIGH_R_V03.X\mcc_generated_files\interrupt_manager.c: 60:     {
      +                          ;D:\yiming\00work\TY1475_HIGH_R_V03.X\mcc_generated_files\interrupt_manager.c: 61:      
      +                             if(PIE3bits.CCP3IE == 1 && PIR3bits.CCP3IF == 1)
  4557     0016  0021               	movlb	1	; select bank1
  4558     0017  1E13               	btfss	19,4	;volatile
  4559     0018  281A               	goto	u211_21
  4560     0019  281B               	goto	u211_20
  4561     001A                     u211_21:
  4562     001A  2824               	goto	i1l333
  4563     001B                     u211_20:
  4564     001B                     i1l1964:
  4565     001B  0020               	movlb	0	; select bank0
  4566     001C  1E13               	btfss	19,4	;volatile
  4567     001D  281F               	goto	u212_21
  4568     001E  2820               	goto	u212_20
  4569     001F                     u212_21:
  4570     001F  2824               	goto	i1l333
  4571     0020                     u212_20:
  4572     0020                     i1l1966:
  4573                           
  4574                           ;D:\yiming\00work\TY1475_HIGH_R_V03.X\mcc_generated_files\interrupt_manager.c: 62:      
      +                             {;D:\yiming\00work\TY1475_HIGH_R_V03.X\mcc_generated_files\interrupt_manager.c: 63:  
      +                                     ECCP3_CaptureISR();
  4575     0020  3184  247E  3180   	fcall	_ECCP3_CaptureISR
  4576                           
  4577                           ;D:\yiming\00work\TY1475_HIGH_R_V03.X\mcc_generated_files\interrupt_manager.c: 64:      
      +                             }
  4578     0023  2824               	goto	i1l334
  4579     0024                     i1l333:	
  4580                           ;D:\yiming\00work\TY1475_HIGH_R_V03.X\mcc_generated_files\interrupt_manager.c: 71:     {
      +                          ;D:\yiming\00work\TY1475_HIGH_R_V03.X\mcc_generated_files\interrupt_manager.c: 73:     }
  4581                           
  4582     0024                     i1l334:
  4583     0024  107E               	bcf	int$flags,0	;clear compiler interrupt flag (level 1)
  4584     0025  0009               	retfie
  4585     0026                     __end_of_INTERRUPT_InterruptManager:
  4586                           
  4587                           	psect	text18
  4588     0443                     __ptext18:	
  4589 ;; *************** function _TMR0_ISR *****************
  4590 ;; Defined at:
  4591 ;;		line 108 in file "D:\yiming\00work\TY1475_HIGH_R_V03.X\mcc_generated_files\tmr0.c"
  4592 ;; Parameters:    Size  Location     Type
  4593 ;;		None
  4594 ;; Auto vars:     Size  Location     Type
  4595 ;;		None
  4596 ;; Return value:  Size  Location     Type
  4597 ;;                  1    wreg      void 
  4598 ;; Registers used:
  4599 ;;		wreg, status,2, status,0, pclath, cstack
  4600 ;; Tracked objects:
  4601 ;;		On entry : 0/0
  4602 ;;		On exit  : 0/0
  4603 ;;		Unchanged: 0/0
  4604 ;; Data sizes:     COMMON   BANK0   BANK1   BANK2   BANK3   BANK4   BANK5   BANK6
  4605 ;;      Params:         0       0       0       0       0       0       0       0
  4606 ;;      Locals:         0       0       0       0       0       0       0       0
  4607 ;;      Temps:          0       0       0       0       0       0       0       0
  4608 ;;      Totals:         0       0       0       0       0       0       0       0
  4609 ;;Total ram usage:        0 bytes
  4610 ;; Hardware stack levels used: 1
  4611 ;; Hardware stack levels required when called: 2
  4612 ;; This function calls:
  4613 ;;		_TMR0_CallBack
  4614 ;; This function is called by:
  4615 ;;		_INTERRUPT_InterruptManager
  4616 ;; This function uses a non-reentrant model
  4617 ;;
  4618                           
  4619     0443                     _TMR0_ISR:	
  4620                           ;psect for function _TMR0_ISR
  4621                           
  4622     0443                     i1l1914:	
  4623                           ;incstack = 0
  4624                           ; Regs used in _TMR0_ISR: [wreg+status,2+status,0+pclath+cstack]
  4625                           
  4626                           
  4627                           ;D:\yiming\00work\TY1475_HIGH_R_V03.X\mcc_generated_files\tmr0.c: 110:     static volati
      +                          le uint16_t CountCallBack = 0;;D:\yiming\00work\TY1475_HIGH_R_V03.X\mcc_generated_files\
      +                          tmr0.c: 113:     INTCONbits.TMR0IF = 0;
  4628     0443  110B               	bcf	11,2	;volatile
  4629     0444                     i1l1916:
  4630                           
  4631                           ;D:\yiming\00work\TY1475_HIGH_R_V03.X\mcc_generated_files\tmr0.c: 115:     TMR0 = timer0
      +                          ReloadVal;
  4632     0444  0020               	movlb	0	; select bank0
  4633     0445  0835               	movf	_timer0ReloadVal,w	;volatile
  4634     0446  0095               	movwf	21	;volatile
  4635                           
  4636                           ;D:\yiming\00work\TY1475_HIGH_R_V03.X\mcc_generated_files\tmr0.c: 118:     if (++CountCa
      +                          llBack >= 10)
  4637     0447  3001               	movlw	1
  4638     0448  07AD               	addwf	TMR0_ISR@CountCallBack,f	;volatile
  4639     0449  3000               	movlw	0
  4640     044A  3DAE               	addwfc	TMR0_ISR@CountCallBack+1,f	;volatile
  4641     044B  3000               	movlw	0
  4642     044C  022E               	subwf	TMR0_ISR@CountCallBack+1,w	;volatile
  4643     044D  300A               	movlw	10
  4644     044E  1903               	skipnz
  4645     044F  022D               	subwf	TMR0_ISR@CountCallBack,w	;volatile
  4646     0450  1C03               	skipc
  4647     0451  2C53               	goto	u204_21
  4648     0452  2C54               	goto	u204_20
  4649     0453                     u204_21:
  4650     0453  2C5A               	goto	i1l428
  4651     0454                     u204_20:
  4652     0454                     i1l1918:
  4653                           
  4654                           ;D:\yiming\00work\TY1475_HIGH_R_V03.X\mcc_generated_files\tmr0.c: 119:     {;D:\yiming\0
      +                          0work\TY1475_HIGH_R_V03.X\mcc_generated_files\tmr0.c: 121:         TMR0_CallBack();
  4655     0454  3184  24A7  3184   	fcall	_TMR0_CallBack
  4656     0457                     i1l1920:
  4657                           
  4658                           ;D:\yiming\00work\TY1475_HIGH_R_V03.X\mcc_generated_files\tmr0.c: 124:         CountCall
      +                          Back = 0;
  4659     0457  0020               	movlb	0	; select bank0
  4660     0458  01AD               	clrf	TMR0_ISR@CountCallBack	;volatile
  4661     0459  01AE               	clrf	TMR0_ISR@CountCallBack+1	;volatile
  4662     045A                     i1l428:
  4663     045A  0008               	return
  4664     045B                     __end_of_TMR0_ISR:
  4665                           
  4666                           	psect	text19
  4667     04A7                     __ptext19:	
  4668 ;; *************** function _TMR0_CallBack *****************
  4669 ;; Defined at:
  4670 ;;		line 130 in file "D:\yiming\00work\TY1475_HIGH_R_V03.X\mcc_generated_files\tmr0.c"
  4671 ;; Parameters:    Size  Location     Type
  4672 ;;		None
  4673 ;; Auto vars:     Size  Location     Type
  4674 ;;		None
  4675 ;; Return value:  Size  Location     Type
  4676 ;;                  1    wreg      void 
  4677 ;; Registers used:
  4678 ;;		wreg, status,2, status,0, pclath, cstack
  4679 ;; Tracked objects:
  4680 ;;		On entry : 0/0
  4681 ;;		On exit  : 0/0
  4682 ;;		Unchanged: 0/0
  4683 ;; Data sizes:     COMMON   BANK0   BANK1   BANK2   BANK3   BANK4   BANK5   BANK6
  4684 ;;      Params:         0       0       0       0       0       0       0       0
  4685 ;;      Locals:         0       0       0       0       0       0       0       0
  4686 ;;      Temps:          0       0       0       0       0       0       0       0
  4687 ;;      Totals:         0       0       0       0       0       0       0       0
  4688 ;;Total ram usage:        0 bytes
  4689 ;; Hardware stack levels used: 1
  4690 ;; Hardware stack levels required when called: 1
  4691 ;; This function calls:
  4692 ;;		NULL
  4693 ;;		_TMR0_DefaultInterruptHandler
  4694 ;;		_TMR0_EvenHandler
  4695 ;; This function is called by:
  4696 ;;		_TMR0_ISR
  4697 ;; This function uses a non-reentrant model
  4698 ;;
  4699                           
  4700     04A7                     _TMR0_CallBack:	
  4701                           ;psect for function _TMR0_CallBack
  4702                           
  4703     04A7                     i1l1678:	
  4704                           ;incstack = 0
  4705                           ; Regs used in _TMR0_CallBack: [wreg+status,2+status,0+pclath+cstack]
  4706                           
  4707                           
  4708                           ;D:\yiming\00work\TY1475_HIGH_R_V03.X\mcc_generated_files\tmr0.c: 134:     if(TMR0_Inter
      +                          ruptHandler)
  4709     04A7  0020               	movlb	0	; select bank0
  4710     04A8  082F               	movf	_TMR0_InterruptHandler,w
  4711     04A9  0430               	iorwf	_TMR0_InterruptHandler+1,w
  4712     04AA  1903               	btfsc	3,2
  4713     04AB  2CAD               	goto	u125_21
  4714     04AC  2CAE               	goto	u125_20
  4715     04AD                     u125_21:
  4716     04AD  2CB3               	goto	i1l432
  4717     04AE                     u125_20:
  4718     04AE                     i1l1680:
  4719                           
  4720                           ;D:\yiming\00work\TY1475_HIGH_R_V03.X\mcc_generated_files\tmr0.c: 135:     {;D:\yiming\0
      +                          0work\TY1475_HIGH_R_V03.X\mcc_generated_files\tmr0.c: 136:         TMR0_InterruptHandler
      +                          ();
  4721     04AE  0830               	movf	_TMR0_InterruptHandler+1,w
  4722     04AF  008A               	movwf	10
  4723     04B0  082F               	movf	_TMR0_InterruptHandler,w
  4724     04B1  000A               	callw
  4725     04B2  3184               	pagesel	$
  4726     04B3                     i1l432:
  4727     04B3  0008               	return
  4728     04B4                     __end_of_TMR0_CallBack:
  4729                           
  4730                           	psect	text20
  4731     04E8                     __ptext20:	
  4732 ;; *************** function _TMR0_DefaultInterruptHandler *****************
  4733 ;; Defined at:
  4734 ;;		line 144 in file "D:\yiming\00work\TY1475_HIGH_R_V03.X\mcc_generated_files\tmr0.c"
  4735 ;; Parameters:    Size  Location     Type
  4736 ;;		None
  4737 ;; Auto vars:     Size  Location     Type
  4738 ;;		None
  4739 ;; Return value:  Size  Location     Type
  4740 ;;                  1    wreg      void 
  4741 ;; Registers used:
  4742 ;;		None
  4743 ;; Tracked objects:
  4744 ;;		On entry : 0/0
  4745 ;;		On exit  : 0/0
  4746 ;;		Unchanged: 0/0
  4747 ;; Data sizes:     COMMON   BANK0   BANK1   BANK2   BANK3   BANK4   BANK5   BANK6
  4748 ;;      Params:         0       0       0       0       0       0       0       0
  4749 ;;      Locals:         0       0       0       0       0       0       0       0
  4750 ;;      Temps:          0       0       0       0       0       0       0       0
  4751 ;;      Totals:         0       0       0       0       0       0       0       0
  4752 ;;Total ram usage:        0 bytes
  4753 ;; Hardware stack levels used: 1
  4754 ;; This function calls:
  4755 ;;		Nothing
  4756 ;; This function is called by:
  4757 ;;		_TMR0_Initialize
  4758 ;;		_TMR0_CallBack
  4759 ;; This function uses a non-reentrant model
  4760 ;;
  4761                           
  4762     04E8                     _TMR0_DefaultInterruptHandler:	
  4763                           ;psect for function _TMR0_DefaultInterruptHandler
  4764                           
  4765     04E8                     i1l438:	
  4766                           ;incstack = 0
  4767                           ; Regs used in _TMR0_DefaultInterruptHandler: []
  4768                           
  4769     04E8  0008               	return
  4770     04E9                     __end_of_TMR0_DefaultInterruptHandler:
  4771                           
  4772                           	psect	text21
  4773     046F                     __ptext21:	
  4774 ;; *************** function _TMR0_EvenHandler *****************
  4775 ;; Defined at:
  4776 ;;		line 616 in file "D:\yiming\00work\TY1475_HIGH_R_V03.X\main.c"
  4777 ;; Parameters:    Size  Location     Type
  4778 ;;		None
  4779 ;; Auto vars:     Size  Location     Type
  4780 ;;		None
  4781 ;; Return value:  Size  Location     Type
  4782 ;;                  1    wreg      void 
  4783 ;; Registers used:
  4784 ;;		wreg, status,2, status,0
  4785 ;; Tracked objects:
  4786 ;;		On entry : 0/0
  4787 ;;		On exit  : 0/0
  4788 ;;		Unchanged: 0/0
  4789 ;; Data sizes:     COMMON   BANK0   BANK1   BANK2   BANK3   BANK4   BANK5   BANK6
  4790 ;;      Params:         0       0       0       0       0       0       0       0
  4791 ;;      Locals:         0       0       0       0       0       0       0       0
  4792 ;;      Temps:          1       0       0       0       0       0       0       0
  4793 ;;      Totals:         1       0       0       0       0       0       0       0
  4794 ;;Total ram usage:        1 bytes
  4795 ;; Hardware stack levels used: 1
  4796 ;; This function calls:
  4797 ;;		Nothing
  4798 ;; This function is called by:
  4799 ;;		_main
  4800 ;;		_TMR0_CallBack
  4801 ;; This function uses a non-reentrant model
  4802 ;;
  4803                           
  4804     046F                     _TMR0_EvenHandler:	
  4805                           ;psect for function _TMR0_EvenHandler
  4806                           
  4807     046F                     i1l1522:	
  4808                           ;incstack = 0
  4809                           ; Regs used in _TMR0_EvenHandler: [wreg+status,2+status,0]
  4810                           
  4811                           
  4812                           ;D:\yiming\00work\TY1475_HIGH_R_V03.X\main.c: 617:   T10MS_CNT++;
  4813     046F  3001               	movlw	1
  4814     0470  00F6               	movwf	??_TMR0_EvenHandler
  4815     0471  0876               	movf	??_TMR0_EvenHandler,w
  4816     0472  0020               	movlb	0	; select bank0
  4817     0473  07BF               	addwf	_T10MS_CNT,f	;volatile
  4818     0474                     i1l1524:
  4819                           
  4820                           ;D:\yiming\00work\TY1475_HIGH_R_V03.X\main.c: 618:   if (T10MS_CNT >= 200) {
  4821     0474  30C8               	movlw	200
  4822     0475  023F               	subwf	_T10MS_CNT,w	;volatile
  4823     0476  1C03               	skipc
  4824     0477  2C79               	goto	u108_21
  4825     0478  2C7A               	goto	u108_20
  4826     0479                     u108_21:
  4827     0479  2C7D               	goto	i1l255
  4828     047A                     u108_20:
  4829     047A                     i1l1526:
  4830                           
  4831                           ;D:\yiming\00work\TY1475_HIGH_R_V03.X\main.c: 619:     fException2 = 1;
  4832     047A  01BD               	clrf	_fException2
  4833     047B  0ABD               	incf	_fException2,f
  4834     047C                     i1l1528:
  4835                           
  4836                           ;D:\yiming\00work\TY1475_HIGH_R_V03.X\main.c: 620:     T10MS_CNT = 0;
  4837     047C  01BF               	clrf	_T10MS_CNT	;volatile
  4838     047D                     i1l255:
  4839     047D  0008               	return
  4840     047E                     __end_of_TMR0_EvenHandler:
  4841                           
  4842                           	psect	text22
  4843     047E                     __ptext22:	
  4844 ;; *************** function _ECCP3_CaptureISR *****************
  4845 ;; Defined at:
  4846 ;;		line 80 in file "D:\yiming\00work\TY1475_HIGH_R_V03.X\mcc_generated_files\eccp3.c"
  4847 ;; Parameters:    Size  Location     Type
  4848 ;;		None
  4849 ;; Auto vars:     Size  Location     Type
  4850 ;;  module          2    4[COMMON] struct CCPR3Reg_tag
  4851 ;; Return value:  Size  Location     Type
  4852 ;;                  1    wreg      void 
  4853 ;; Registers used:
  4854 ;;		wreg, status,2, status,0, pclath, cstack
  4855 ;; Tracked objects:
  4856 ;;		On entry : 0/0
  4857 ;;		On exit  : 0/0
  4858 ;;		Unchanged: 0/0
  4859 ;; Data sizes:     COMMON   BANK0   BANK1   BANK2   BANK3   BANK4   BANK5   BANK6
  4860 ;;      Params:         0       0       0       0       0       0       0       0
  4861 ;;      Locals:         2       0       0       0       0       0       0       0
  4862 ;;      Temps:          0       0       0       0       0       0       0       0
  4863 ;;      Totals:         2       0       0       0       0       0       0       0
  4864 ;;Total ram usage:        2 bytes
  4865 ;; Hardware stack levels used: 1
  4866 ;; Hardware stack levels required when called: 1
  4867 ;; This function calls:
  4868 ;;		_ECCP3_CallBack
  4869 ;; This function is called by:
  4870 ;;		_INTERRUPT_InterruptManager
  4871 ;; This function uses a non-reentrant model
  4872 ;;
  4873                           
  4874     047E                     _ECCP3_CaptureISR:	
  4875                           ;psect for function _ECCP3_CaptureISR
  4876                           
  4877     047E                     i1l1908:	
  4878                           ;incstack = 0
  4879                           ; Regs used in _ECCP3_CaptureISR: [wreg+status,2+status,0+pclath+cstack]
  4880                           
  4881                           
  4882                           ;D:\yiming\00work\TY1475_HIGH_R_V03.X\mcc_generated_files\eccp3.c: 82:     CCP3_PERIOD_R
      +                          EG_T module;;D:\yiming\00work\TY1475_HIGH_R_V03.X\mcc_generated_files\eccp3.c: 85:     P
      +                          IR3bits.CCP3IF = 0;
  4883     047E  0020               	movlb	0	; select bank0
  4884     047F  1213               	bcf	19,4	;volatile
  4885     0480                     i1l1910:
  4886                           
  4887                           ;D:\yiming\00work\TY1475_HIGH_R_V03.X\mcc_generated_files\eccp3.c: 88:     module.ccpr3l
      +                           = CCPR3L;
  4888     0480  0026               	movlb	6	; select bank6
  4889     0481  0811               	movf	17,w	;volatile
  4890     0482  00FA               	movwf	ECCP3_CaptureISR@module
  4891                           
  4892                           ;D:\yiming\00work\TY1475_HIGH_R_V03.X\mcc_generated_files\eccp3.c: 89:     module.ccpr3h
      +                           = CCPR3H;
  4893     0483  0812               	movf	18,w	;volatile
  4894     0484  00FB               	movwf	ECCP3_CaptureISR@module+1
  4895     0485                     i1l1912:
  4896                           
  4897                           ;D:\yiming\00work\TY1475_HIGH_R_V03.X\mcc_generated_files\eccp3.c: 92:     ECCP3_CallBac
      +                          k(module.ccpr3_16Bit);
  4898     0485  087B               	movf	ECCP3_CaptureISR@module+1,w
  4899     0486  00F7               	movwf	ECCP3_CallBack@capturedValue+1
  4900     0487  087A               	movf	ECCP3_CaptureISR@module,w
  4901     0488  00F6               	movwf	ECCP3_CallBack@capturedValue
  4902     0489  3181  21C3  3184   	fcall	_ECCP3_CallBack
  4903     048C                     i1l293:
  4904     048C  0008               	return
  4905     048D                     __end_of_ECCP3_CaptureISR:
  4906                           
  4907                           	psect	text23
  4908     01C3                     __ptext23:	
  4909 ;; *************** function _ECCP3_CallBack *****************
  4910 ;; Defined at:
  4911 ;;		line 542 in file "D:\yiming\00work\TY1475_HIGH_R_V03.X\main.c"
  4912 ;; Parameters:    Size  Location     Type
  4913 ;;  capturedValu    2    0[COMMON] unsigned short 
  4914 ;; Auto vars:     Size  Location     Type
  4915 ;;		None
  4916 ;; Return value:  Size  Location     Type
  4917 ;;                  1    wreg      void 
  4918 ;; Registers used:
  4919 ;;		wreg, status,2, status,0
  4920 ;; Tracked objects:
  4921 ;;		On entry : 0/0
  4922 ;;		On exit  : 0/0
  4923 ;;		Unchanged: 0/0
  4924 ;; Data sizes:     COMMON   BANK0   BANK1   BANK2   BANK3   BANK4   BANK5   BANK6
  4925 ;;      Params:         2       0       0       0       0       0       0       0
  4926 ;;      Locals:         0       0       0       0       0       0       0       0
  4927 ;;      Temps:          2       0       0       0       0       0       0       0
  4928 ;;      Totals:         4       0       0       0       0       0       0       0
  4929 ;;Total ram usage:        4 bytes
  4930 ;; Hardware stack levels used: 1
  4931 ;; This function calls:
  4932 ;;		Nothing
  4933 ;; This function is called by:
  4934 ;;		_ECCP3_CaptureISR
  4935 ;; This function uses a non-reentrant model
  4936 ;;
  4937                           
  4938     01C3                     _ECCP3_CallBack:	
  4939                           ;psect for function _ECCP3_CallBack
  4940                           
  4941     01C3                     i1l1544:	
  4942                           ;incstack = 0
  4943                           ; Regs used in _ECCP3_CallBack: [wreg+status,2+status,0]
  4944                           
  4945                           
  4946                           ;D:\yiming\00work\TY1475_HIGH_R_V03.X\main.c: 543:   static uint16_t pluse_width_LO = 0;
      +                          ;D:\yiming\00work\TY1475_HIGH_R_V03.X\main.c: 544:   static uint16_t pluse_width_HI = 0;
      +                          ;D:\yiming\00work\TY1475_HIGH_R_V03.X\main.c: 545:   static uint8_t HI_us = 0;;D:\yiming
      +                          \00work\TY1475_HIGH_R_V03.X\main.c: 546:   static uint8_t LO_us = 0;;D:\yiming\00work\TY
      +                          1475_HIGH_R_V03.X\main.c: 547:   static uint8_t diff_us = 0;;D:\yiming\00work\TY1475_HIG
      +                          H_R_V03.X\main.c: 548:   static uint16_t falling_edge_time = 0;;D:\yiming\00work\TY1475_
      +                          HIGH_R_V03.X\main.c: 549:   static uint16_t rising_edge_time = 0;
  4947     01C3  3004               	movlw	4
  4948     01C4  0026               	movlb	6	; select bank6
  4949     01C5  0613               	xorwf	19,w	;volatile
  4950     01C6  1D03               	btfss	3,2
  4951     01C7  29C9               	goto	u112_21
  4952     01C8  29CA               	goto	u112_20
  4953     01C9                     u112_21:
  4954     01C9  2A60               	goto	i1l1584
  4955     01CA                     u112_20:
  4956     01CA                     i1l1546:
  4957                           
  4958                           ;D:\yiming\00work\TY1475_HIGH_R_V03.X\main.c: 556:     falling_edge_time = capturedValue
      +                          ;
  4959     01CA  0877               	movf	ECCP3_CallBack@capturedValue+1,w
  4960     01CB  00F3               	movwf	ECCP3_CallBack@falling_edge_time+1
  4961     01CC  0876               	movf	ECCP3_CallBack@capturedValue,w
  4962     01CD  00F2               	movwf	ECCP3_CallBack@falling_edge_time
  4963                           
  4964                           ;D:\yiming\00work\TY1475_HIGH_R_V03.X\main.c: 557:     CCP3CON = 0x05;
  4965     01CE  3005               	movlw	5
  4966     01CF  0093               	movwf	19	;volatile
  4967     01D0                     i1l1548:
  4968                           
  4969                           ;D:\yiming\00work\TY1475_HIGH_R_V03.X\main.c: 558:     if (rise_edge_flag == 1) {
  4970     01D0  0020               	movlb	0	; select bank0
  4971     01D1  0338               	decf	ECCP3_CallBack@rise_edge_flag,w
  4972     01D2  1D03               	btfss	3,2
  4973     01D3  29D5               	goto	u113_21
  4974     01D4  29D6               	goto	u113_20
  4975     01D5                     u113_21:
  4976     01D5  2A8D               	goto	i1l251
  4977     01D6                     u113_20:
  4978     01D6                     i1l1550:
  4979                           
  4980                           ;D:\yiming\00work\TY1475_HIGH_R_V03.X\main.c: 559:       rise_edge_flag = 0;
  4981     01D6  01B8               	clrf	ECCP3_CallBack@rise_edge_flag
  4982     01D7                     i1l1552:
  4983                           
  4984                           ;D:\yiming\00work\TY1475_HIGH_R_V03.X\main.c: 561:       if (falling_edge_time >= rising
      +                          _edge_time) {
  4985     01D7  0871               	movf	ECCP3_CallBack@rising_edge_time+1,w
  4986     01D8  0273               	subwf	ECCP3_CallBack@falling_edge_time+1,w
  4987     01D9  1D03               	skipz
  4988     01DA  29DD               	goto	u114_25
  4989     01DB  0870               	movf	ECCP3_CallBack@rising_edge_time,w
  4990     01DC  0272               	subwf	ECCP3_CallBack@falling_edge_time,w
  4991     01DD                     u114_25:
  4992     01DD  1C03               	skipc
  4993     01DE  29E0               	goto	u114_21
  4994     01DF  29E1               	goto	u114_20
  4995     01E0                     u114_21:
  4996     01E0  29E8               	goto	i1l1556
  4997     01E1                     u114_20:
  4998     01E1                     i1l1554:
  4999                           
  5000                           ;D:\yiming\00work\TY1475_HIGH_R_V03.X\main.c: 562:         pluse_width_HI = falling_edge
      +                          _time - rising_edge_time;
  5001     01E1  0870               	movf	ECCP3_CallBack@rising_edge_time,w
  5002     01E2  0272               	subwf	ECCP3_CallBack@falling_edge_time,w
  5003     01E3  00B1               	movwf	ECCP3_CallBack@pluse_width_HI
  5004     01E4  0871               	movf	ECCP3_CallBack@rising_edge_time+1,w
  5005     01E5  3B73               	subwfb	ECCP3_CallBack@falling_edge_time+1,w
  5006     01E6  00B2               	movwf	ECCP3_CallBack@pluse_width_HI+1
  5007                           
  5008                           ;D:\yiming\00work\TY1475_HIGH_R_V03.X\main.c: 563:       } else {
  5009     01E7  29F4               	goto	i1l230
  5010     01E8                     i1l1556:
  5011                           
  5012                           ;D:\yiming\00work\TY1475_HIGH_R_V03.X\main.c: 564:         pluse_width_HI = (0xffff - ri
      +                          sing_edge_time) + falling_edge_time;
  5013     01E8  0871               	movf	ECCP3_CallBack@rising_edge_time+1,w
  5014     01E9  00F9               	movwf	??_ECCP3_CallBack+1
  5015     01EA  0870               	movf	ECCP3_CallBack@rising_edge_time,w
  5016     01EB  00F8               	movwf	??_ECCP3_CallBack
  5017     01EC  09F8               	comf	??_ECCP3_CallBack,f
  5018     01ED  09F9               	comf	??_ECCP3_CallBack+1,f
  5019     01EE  0872               	movf	ECCP3_CallBack@falling_edge_time,w
  5020     01EF  0778               	addwf	??_ECCP3_CallBack,w
  5021     01F0  00B1               	movwf	ECCP3_CallBack@pluse_width_HI
  5022     01F1  0873               	movf	ECCP3_CallBack@falling_edge_time+1,w
  5023     01F2  3D79               	addwfc	??_ECCP3_CallBack+1,w
  5024     01F3  00B2               	movwf	ECCP3_CallBack@pluse_width_HI+1
  5025     01F4                     i1l230:	
  5026                           ;D:\yiming\00work\TY1475_HIGH_R_V03.X\main.c: 565:       }
  5027                           
  5028                           
  5029                           ;D:\yiming\00work\TY1475_HIGH_R_V03.X\main.c: 566:       LO_us = (pluse_width_LO >> 3) &
      +                           0xff;
  5030     01F4  0834               	movf	ECCP3_CallBack@pluse_width_LO+1,w
  5031     01F5  00F9               	movwf	??_ECCP3_CallBack+1
  5032     01F6  0833               	movf	ECCP3_CallBack@pluse_width_LO,w
  5033     01F7  00F8               	movwf	??_ECCP3_CallBack
  5034     01F8  36F9               	lsrf	??_ECCP3_CallBack+1,f
  5035     01F9  0CF8               	rrf	??_ECCP3_CallBack,f
  5036     01FA  36F9               	lsrf	??_ECCP3_CallBack+1,f
  5037     01FB  0CF8               	rrf	??_ECCP3_CallBack,f
  5038     01FC  36F9               	lsrf	??_ECCP3_CallBack+1,f
  5039     01FD  0CF8               	rrf	??_ECCP3_CallBack,f
  5040     01FE  0878               	movf	??_ECCP3_CallBack,w
  5041     01FF  00BA               	movwf	ECCP3_CallBack@LO_us
  5042                           
  5043                           ;D:\yiming\00work\TY1475_HIGH_R_V03.X\main.c: 567:       HI_us = (pluse_width_HI >> 3) &
      +                           0xff;
  5044     0200  0832               	movf	ECCP3_CallBack@pluse_width_HI+1,w
  5045     0201  00F9               	movwf	??_ECCP3_CallBack+1
  5046     0202  0831               	movf	ECCP3_CallBack@pluse_width_HI,w
  5047     0203  00F8               	movwf	??_ECCP3_CallBack
  5048     0204  36F9               	lsrf	??_ECCP3_CallBack+1,f
  5049     0205  0CF8               	rrf	??_ECCP3_CallBack,f
  5050     0206  36F9               	lsrf	??_ECCP3_CallBack+1,f
  5051     0207  0CF8               	rrf	??_ECCP3_CallBack,f
  5052     0208  36F9               	lsrf	??_ECCP3_CallBack+1,f
  5053     0209  0CF8               	rrf	??_ECCP3_CallBack,f
  5054     020A  0878               	movf	??_ECCP3_CallBack,w
  5055     020B  00BB               	movwf	ECCP3_CallBack@HI_us
  5056     020C                     i1l1558:
  5057                           
  5058                           ;D:\yiming\00work\TY1475_HIGH_R_V03.X\main.c: 568:       if (HI_us > LO_us)
  5059     020C  083B               	movf	ECCP3_CallBack@HI_us,w
  5060     020D  023A               	subwf	ECCP3_CallBack@LO_us,w
  5061     020E  1803               	skipnc
  5062     020F  2A11               	goto	u115_21
  5063     0210  2A12               	goto	u115_20
  5064     0211                     u115_21:
  5065     0211  2A16               	goto	i1l1562
  5066     0212                     u115_20:
  5067     0212                     i1l1560:
  5068                           
  5069                           ;D:\yiming\00work\TY1475_HIGH_R_V03.X\main.c: 569:         diff_us = HI_us - LO_us;
  5070     0212  083A               	movf	ECCP3_CallBack@LO_us,w
  5071     0213  023B               	subwf	ECCP3_CallBack@HI_us,w
  5072     0214  00B9               	movwf	ECCP3_CallBack@diff_us
  5073     0215  2A19               	goto	i1l232
  5074     0216                     i1l1562:
  5075                           
  5076                           ;D:\yiming\00work\TY1475_HIGH_R_V03.X\main.c: 571:         diff_us = LO_us - HI_us;
  5077     0216  083B               	movf	ECCP3_CallBack@HI_us,w
  5078     0217  023A               	subwf	ECCP3_CallBack@LO_us,w
  5079     0218  00B9               	movwf	ECCP3_CallBack@diff_us
  5080     0219                     i1l232:
  5081                           
  5082                           ;D:\yiming\00work\TY1475_HIGH_R_V03.X\main.c: 573:       if (fHead == 0) {
  5083     0219  0837               	movf	ECCP3_CallBack@fHead,w
  5084     021A  1D03               	btfss	3,2
  5085     021B  2A1D               	goto	u116_21
  5086     021C  2A1E               	goto	u116_20
  5087     021D                     u116_21:
  5088     021D  2A2D               	goto	i1l1572
  5089     021E                     u116_20:
  5090     021E                     i1l234:	
  5091                           ;D:\yiming\00work\TY1475_HIGH_R_V03.X\main.c: 574:         do { LATCbits.LATC4 = 1; } wh
      +                          ile(0);
  5092                           
  5093     021E  0022               	movlb	2	; select bank2
  5094     021F  160E               	bsf	14,4	;volatile
  5095     0220                     i1l1564:
  5096                           
  5097                           ;D:\yiming\00work\TY1475_HIGH_R_V03.X\main.c: 576:         if (diff_us < (16)) {
  5098     0220  3010               	movlw	16
  5099     0221  0020               	movlb	0	; select bank0
  5100     0222  0239               	subwf	ECCP3_CallBack@diff_us,w
  5101     0223  1803               	skipnc
  5102     0224  2A26               	goto	u117_21
  5103     0225  2A27               	goto	u117_20
  5104     0226                     u117_21:
  5105     0226  2A8D               	goto	i1l251
  5106     0227                     u117_20:
  5107     0227                     i1l1566:
  5108                           
  5109                           ;D:\yiming\00work\TY1475_HIGH_R_V03.X\main.c: 578:           fHead = 1;
  5110     0227  01B7               	clrf	ECCP3_CallBack@fHead
  5111     0228  0AB7               	incf	ECCP3_CallBack@fHead,f
  5112     0229                     i1l1568:
  5113                           
  5114                           ;D:\yiming\00work\TY1475_HIGH_R_V03.X\main.c: 579:           data_cnt = 0;
  5115     0229  01B6               	clrf	ECCP3_CallBack@data_cnt
  5116     022A                     i1l1570:
  5117     022A  0022               	movlb	2	; select bank2
  5118     022B  120E               	bcf	14,4	;volatile
  5119     022C  2A8D               	goto	i1l251
  5120     022D                     i1l1572:
  5121                           
  5122                           ;D:\yiming\00work\TY1475_HIGH_R_V03.X\main.c: 584:         if (diff_us < (16)) {
  5123     022D  3010               	movlw	16
  5124     022E  0239               	subwf	ECCP3_CallBack@diff_us,w
  5125     022F  1803               	skipnc
  5126     0230  2A32               	goto	u118_21
  5127     0231  2A33               	goto	u118_20
  5128     0232                     u118_21:
  5129     0232  2A43               	goto	i1l244
  5130     0233                     u118_20:
  5131     0233                     i1l241:	
  5132                           ;D:\yiming\00work\TY1475_HIGH_R_V03.X\main.c: 586:           do { LATCbits.LATC4 = 0; } 
      +                          while(0);
  5133                           
  5134     0233  0022               	movlb	2	; select bank2
  5135     0234  120E               	bcf	14,4	;volatile
  5136     0235                     i1l1574:
  5137                           
  5138                           ;D:\yiming\00work\TY1475_HIGH_R_V03.X\main.c: 587:           rx_data &= ~(1 << data_cnt)
      +                          ;
  5139     0235  3001               	movlw	1
  5140     0236  00F8               	movwf	??_ECCP3_CallBack
  5141     0237  0020               	movlb	0	; select bank0
  5142     0238  0A36               	incf	ECCP3_CallBack@data_cnt,w
  5143     0239  2A3B               	goto	u119_24
  5144     023A                     u119_25:
  5145     023A  35F8               	lslf	??_ECCP3_CallBack,f
  5146     023B                     u119_24:
  5147     023B  0B89               	decfsz	9,f
  5148     023C  2A3A               	goto	u119_25
  5149     023D  0878               	movf	??_ECCP3_CallBack,w
  5150     023E  3AFF               	xorlw	255
  5151     023F  00F9               	movwf	??_ECCP3_CallBack+1
  5152     0240  0879               	movf	??_ECCP3_CallBack+1,w
  5153     0241  05F5               	andwf	_rx_data,f
  5154                           
  5155                           ;D:\yiming\00work\TY1475_HIGH_R_V03.X\main.c: 588:         } else {
  5156     0242  2A51               	goto	i1l243
  5157     0243                     i1l244:	
  5158                           ;D:\yiming\00work\TY1475_HIGH_R_V03.X\main.c: 590:           do { LATCbits.LATC4 = 1; } 
      +                          while(0);
  5159                           
  5160     0243  0022               	movlb	2	; select bank2
  5161     0244  160E               	bsf	14,4	;volatile
  5162     0245                     i1l1576:
  5163                           
  5164                           ;D:\yiming\00work\TY1475_HIGH_R_V03.X\main.c: 591:           rx_data |= (1 << data_cnt);
  5165     0245  3001               	movlw	1
  5166     0246  00F8               	movwf	??_ECCP3_CallBack
  5167     0247  0020               	movlb	0	; select bank0
  5168     0248  0A36               	incf	ECCP3_CallBack@data_cnt,w
  5169     0249  2A4B               	goto	u120_24
  5170     024A                     u120_25:
  5171     024A  35F8               	lslf	??_ECCP3_CallBack,f
  5172     024B                     u120_24:
  5173     024B  0B89               	decfsz	9,f
  5174     024C  2A4A               	goto	u120_25
  5175     024D  0878               	movf	??_ECCP3_CallBack,w
  5176     024E  00F9               	movwf	??_ECCP3_CallBack+1
  5177     024F  0879               	movf	??_ECCP3_CallBack+1,w
  5178     0250  04F5               	iorwf	_rx_data,f
  5179     0251                     i1l243:	
  5180                           ;D:\yiming\00work\TY1475_HIGH_R_V03.X\main.c: 592:         }
  5181                           
  5182                           
  5183                           ;D:\yiming\00work\TY1475_HIGH_R_V03.X\main.c: 594:         data_cnt++;
  5184     0251  3001               	movlw	1
  5185     0252  00F8               	movwf	??_ECCP3_CallBack
  5186     0253  0878               	movf	??_ECCP3_CallBack,w
  5187     0254  07B6               	addwf	ECCP3_CallBack@data_cnt,f
  5188     0255                     i1l1578:
  5189                           
  5190                           ;D:\yiming\00work\TY1475_HIGH_R_V03.X\main.c: 595:         if (data_cnt > 7) {
  5191     0255  3008               	movlw	8
  5192     0256  0236               	subwf	ECCP3_CallBack@data_cnt,w
  5193     0257  1C03               	skipc
  5194     0258  2A5A               	goto	u121_21
  5195     0259  2A5B               	goto	u121_20
  5196     025A                     u121_21:
  5197     025A  2A5F               	goto	i1l228
  5198     025B                     u121_20:
  5199     025B                     i1l1580:
  5200                           
  5201                           ;D:\yiming\00work\TY1475_HIGH_R_V03.X\main.c: 596:           fHead = 0;
  5202     025B  01B7               	clrf	ECCP3_CallBack@fHead
  5203     025C                     i1l1582:
  5204                           
  5205                           ;D:\yiming\00work\TY1475_HIGH_R_V03.X\main.c: 597:           data_1byte_OK = 1;
  5206     025C  3001               	movlw	1
  5207     025D  00C4               	movwf	_data_1byte_OK	;volatile
  5208     025E  2A8D               	goto	i1l251
  5209     025F                     i1l228:	
  5210                           ;D:\yiming\00work\TY1475_HIGH_R_V03.X\main.c: 600:     }
  5211                           
  5212                           
  5213                           ;D:\yiming\00work\TY1475_HIGH_R_V03.X\main.c: 602:   }
  5214     025F  2A8D               	goto	i1l251
  5215     0260                     i1l1584:
  5216     0260  3005               	movlw	5
  5217     0261  0613               	xorwf	19,w	;volatile
  5218     0262  1D03               	btfss	3,2
  5219     0263  2A65               	goto	u122_21
  5220     0264  2A66               	goto	u122_20
  5221     0265                     u122_21:
  5222     0265  2A8D               	goto	i1l251
  5223     0266                     u122_20:
  5224     0266                     i1l1586:
  5225                           
  5226                           ;D:\yiming\00work\TY1475_HIGH_R_V03.X\main.c: 604:     rising_edge_time = capturedValue;
  5227     0266  0877               	movf	ECCP3_CallBack@capturedValue+1,w
  5228     0267  00F1               	movwf	ECCP3_CallBack@rising_edge_time+1
  5229     0268  0876               	movf	ECCP3_CallBack@capturedValue,w
  5230     0269  00F0               	movwf	ECCP3_CallBack@rising_edge_time
  5231                           
  5232                           ;D:\yiming\00work\TY1475_HIGH_R_V03.X\main.c: 605:     CCP3CON = 0x04;
  5233     026A  3004               	movlw	4
  5234     026B  0093               	movwf	19	;volatile
  5235                           
  5236                           ;D:\yiming\00work\TY1475_HIGH_R_V03.X\main.c: 607:     if (rising_edge_time >= falling_e
      +                          dge_time) {
  5237     026C  0873               	movf	ECCP3_CallBack@falling_edge_time+1,w
  5238     026D  0271               	subwf	ECCP3_CallBack@rising_edge_time+1,w
  5239     026E  1D03               	skipz
  5240     026F  2A72               	goto	u123_25
  5241     0270  0872               	movf	ECCP3_CallBack@falling_edge_time,w
  5242     0271  0270               	subwf	ECCP3_CallBack@rising_edge_time,w
  5243     0272                     u123_25:
  5244     0272  1C03               	skipc
  5245     0273  2A75               	goto	u123_21
  5246     0274  2A76               	goto	u123_20
  5247     0275                     u123_21:
  5248     0275  2A7E               	goto	i1l1590
  5249     0276                     u123_20:
  5250     0276                     i1l1588:
  5251                           
  5252                           ;D:\yiming\00work\TY1475_HIGH_R_V03.X\main.c: 608:       pluse_width_LO = rising_edge_ti
      +                          me - falling_edge_time;
  5253     0276  0872               	movf	ECCP3_CallBack@falling_edge_time,w
  5254     0277  0270               	subwf	ECCP3_CallBack@rising_edge_time,w
  5255     0278  0020               	movlb	0	; select bank0
  5256     0279  00B3               	movwf	ECCP3_CallBack@pluse_width_LO
  5257     027A  0873               	movf	ECCP3_CallBack@falling_edge_time+1,w
  5258     027B  3B71               	subwfb	ECCP3_CallBack@rising_edge_time+1,w
  5259     027C  00B4               	movwf	ECCP3_CallBack@pluse_width_LO+1
  5260                           
  5261                           ;D:\yiming\00work\TY1475_HIGH_R_V03.X\main.c: 609:     } else {
  5262     027D  2A8B               	goto	i1l1592
  5263     027E                     i1l1590:
  5264                           
  5265                           ;D:\yiming\00work\TY1475_HIGH_R_V03.X\main.c: 610:       pluse_width_LO = (0xffff - fall
      +                          ing_edge_time) + rising_edge_time;
  5266     027E  0873               	movf	ECCP3_CallBack@falling_edge_time+1,w
  5267     027F  00F9               	movwf	??_ECCP3_CallBack+1
  5268     0280  0872               	movf	ECCP3_CallBack@falling_edge_time,w
  5269     0281  00F8               	movwf	??_ECCP3_CallBack
  5270     0282  09F8               	comf	??_ECCP3_CallBack,f
  5271     0283  09F9               	comf	??_ECCP3_CallBack+1,f
  5272     0284  0870               	movf	ECCP3_CallBack@rising_edge_time,w
  5273     0285  0778               	addwf	??_ECCP3_CallBack,w
  5274     0286  0020               	movlb	0	; select bank0
  5275     0287  00B3               	movwf	ECCP3_CallBack@pluse_width_LO
  5276     0288  0871               	movf	ECCP3_CallBack@rising_edge_time+1,w
  5277     0289  3D79               	addwfc	??_ECCP3_CallBack+1,w
  5278     028A  00B4               	movwf	ECCP3_CallBack@pluse_width_LO+1
  5279     028B                     i1l1592:
  5280                           
  5281                           ;D:\yiming\00work\TY1475_HIGH_R_V03.X\main.c: 612:     rise_edge_flag = 1;
  5282     028B  01B8               	clrf	ECCP3_CallBack@rise_edge_flag
  5283     028C  0AB8               	incf	ECCP3_CallBack@rise_edge_flag,f
  5284     028D                     i1l251:
  5285     028D  0008               	return
  5286     028E                     __end_of_ECCP3_CallBack:
  5287     007E                     btemp	set	126	;btemp
  5288     007E                     int$flags	set	126
  5289     007E                     wtemp0	set	126
  5290                           
  5291                           	psect	idloc
  5292                           
  5293                           ;Config register IDLOC0 @ 0x8000
  5294                           ;	unspecified, using default values
  5295     8000                     	org	32768
  5296     8000  3FFF               	dw	16383
  5297                           
  5298                           ;Config register IDLOC1 @ 0x8001
  5299                           ;	unspecified, using default values
  5300     8001                     	org	32769
  5301     8001  3FFF               	dw	16383
  5302                           
  5303                           ;Config register IDLOC2 @ 0x8002
  5304                           ;	unspecified, using default values
  5305     8002                     	org	32770
  5306     8002  3FFF               	dw	16383
  5307                           
  5308                           ;Config register IDLOC3 @ 0x8003
  5309                           ;	unspecified, using default values
  5310     8003                     	org	32771
  5311     8003  3FFF               	dw	16383
  5312                           
  5313                           	psect	config
  5314                           
  5315                           ;Config register CONFIG1 @ 0x8007
  5316                           ;	Oscillator Selection
  5317                           ;	FOSC = INTOSC, INTOSC oscillator: I/O function on CLKIN pin
  5318                           ;	Watchdog Timer Enable
  5319                           ;	WDTE = OFF, WDT disabled
  5320                           ;	Power-up Timer Enable
  5321                           ;	PWRTE = ON, PWRT enabled
  5322                           ;	MCLR Pin Function Select
  5323                           ;	MCLRE = ON, MCLR/VPP pin function is MCLR
  5324                           ;	Flash Program Memory Code Protection
  5325                           ;	CP = OFF, Program memory code protection is disabled
  5326                           ;	Data Memory Code Protection
  5327                           ;	CPD = OFF, Data memory code protection is disabled
  5328                           ;	Brown-out Reset Enable
  5329                           ;	BOREN = ON, Brown-out Reset enabled
  5330                           ;	Clock Out Enable
  5331                           ;	CLKOUTEN = OFF, CLKOUT function is disabled. I/O or oscillator function on the CLKOUT 
      +                          pin
  5332                           ;	Internal/External Switchover
  5333                           ;	IESO = ON, Internal/External Switchover mode is enabled
  5334                           ;	Fail-Safe Clock Monitor Enable
  5335                           ;	FCMEN = ON, Fail-Safe Clock Monitor is enabled
  5336     8007                     	org	32775
  5337     8007  3FC4               	dw	16324
  5338                           
  5339                           ;Config register CONFIG2 @ 0x8008
  5340                           ;	Flash Memory Self-Write Protection
  5341                           ;	WRT = OFF, Write protection off
  5342                           ;	Voltage Regulator Capacitor Enable
  5343                           ;	VCAPEN = OFF, All VCAP pin functionality is disabled
  5344                           ;	PLL Enable
  5345                           ;	PLLEN = ON, 4x PLL enabled
  5346                           ;	Stack Overflow/Underflow Reset Enable
  5347                           ;	STVREN = ON, Stack Overflow or Underflow will cause a Reset
  5348                           ;	Brown-out Reset Voltage Selection
  5349                           ;	BORV = LO, Brown-out Reset Voltage (Vbor), low trip point selected.
  5350                           ;	Low-Voltage Programming Enable
  5351                           ;	LVP = OFF, High-voltage on MCLR/VPP must be used for programming
  5352     8008                     	org	32776
  5353     8008  1FFF               	dw	8191

Data Sizes:
    Strings     0
    Constant    0
    Data        64
    BSS         43
    Persistent  32
    Stack       0

Auto Spaces:
    Space          Size  Autos    Used
    COMMON           14      6      12
    BANK0            80      9      46
    BANK1            80      0      64
    BANK2            80      0       0
    BANK3            80      0       0
    BANK4            80      0       0
    BANK5            80      0       0
    BANK6            16      0       0

Pointer List with Targets:

    TMR0_InterruptHandler	PTR FTN()void  size(2) Largest target is 1
		 -> TMR0_DefaultInterruptHandler(), TMR0_EvenHandler(), NULL(), 

    TMR0_SetInterruptHandler@InterruptHandler	PTR FTN()void  size(2) Largest target is 1
		 -> TMR0_DefaultInterruptHandler(), TMR0_EvenHandler(), 


Critical Paths under _main in COMMON

    None.

Critical Paths under _INTERRUPT_InterruptManager in COMMON

    _INTERRUPT_InterruptManager->_ECCP3_CaptureISR
    _TMR0_CallBack->_TMR0_EvenHandler
    _ECCP3_CaptureISR->_ECCP3_CallBack

Critical Paths under _main in BANK0

    _main->_LED_output
    _TMR0_Initialize->_TMR0_SetInterruptHandler
    _LED_output->_DRL_ON
    _DRL_ON->_EPWM1_LoadDutyValue
    _Exception_handling->_EPWM1_LoadDutyValue

Critical Paths under _INTERRUPT_InterruptManager in BANK0

    None.

Critical Paths under _main in BANK1

    None.

Critical Paths under _INTERRUPT_InterruptManager in BANK1

    None.

Critical Paths under _main in BANK2

    None.

Critical Paths under _INTERRUPT_InterruptManager in BANK2

    None.

Critical Paths under _main in BANK3

    None.

Critical Paths under _INTERRUPT_InterruptManager in BANK3

    None.

Critical Paths under _main in BANK4

    None.

Critical Paths under _INTERRUPT_InterruptManager in BANK4

    None.

Critical Paths under _main in BANK5

    None.

Critical Paths under _INTERRUPT_InterruptManager in BANK5

    None.

Critical Paths under _main in BANK6

    None.

Critical Paths under _INTERRUPT_InterruptManager in BANK6

    None.

Call Graph Tables:

 ---------------------------------------------------------------------------------
 (Depth) Function   	        Calls       Base Space   Used Autos Params    Refs
 ---------------------------------------------------------------------------------
 (0) _main                                                 0     0      0    6603
                _EPWM1_LoadDutyValue
                 _Exception_handling
                         _LED_output
                  _SYSTEM_Initialize
           _TMR0_SetInterruptHandler
                        _check_input
                       _getFrameData
 ---------------------------------------------------------------------------------
 (1) _getFrameData                                         0     0      0       0
 ---------------------------------------------------------------------------------
 (1) _check_input                                          0     0      0       0
 ---------------------------------------------------------------------------------
 (1) _SYSTEM_Initialize                                    0     0      0     211
                   _ECCP3_Initialize
                   _EPWM1_Initialize
              _OSCILLATOR_Initialize
             _PIN_MANAGER_Initialize
                    _TMR0_Initialize
                    _TMR1_Initialize
                    _TMR2_Initialize
                     _WDT_Initialize
 ---------------------------------------------------------------------------------
 (2) _WDT_Initialize                                       0     0      0       0
 ---------------------------------------------------------------------------------
 (2) _TMR2_Initialize                                      0     0      0       0
 ---------------------------------------------------------------------------------
 (2) _TMR1_Initialize                                      0     0      0       0
 ---------------------------------------------------------------------------------
 (2) _TMR0_Initialize                                      0     0      0     211
           _TMR0_SetInterruptHandler
 ---------------------------------------------------------------------------------
 (1) _TMR0_SetInterruptHandler                             2     0      2     211
                                              0 BANK0      2     0      2
 ---------------------------------------------------------------------------------
 (2) _PIN_MANAGER_Initialize                               0     0      0       0
 ---------------------------------------------------------------------------------
 (2) _OSCILLATOR_Initialize                                0     0      0       0
 ---------------------------------------------------------------------------------
 (2) _EPWM1_Initialize                                     0     0      0       0
 ---------------------------------------------------------------------------------
 (2) _ECCP3_Initialize                                     0     0      0       0
 ---------------------------------------------------------------------------------
 (1) _LED_output                                           3     3      0    3177
                                              6 BANK0      3     3      0
                             _DRL_ON
                _EPWM1_LoadDutyValue
 ---------------------------------------------------------------------------------
 (2) _DRL_ON                                               2     2      0    1542
                                              4 BANK0      2     2      0
                _EPWM1_LoadDutyValue
 ---------------------------------------------------------------------------------
 (1) _Exception_handling                                   0     0      0    1502
                _EPWM1_LoadDutyValue
 ---------------------------------------------------------------------------------
 (2) _EPWM1_LoadDutyValue                                  4     2      2    1502
                                              0 BANK0      4     2      2
 ---------------------------------------------------------------------------------
 Estimated maximum stack depth 2
 ---------------------------------------------------------------------------------
 (Depth) Function   	        Calls       Base Space   Used Autos Params    Refs
 ---------------------------------------------------------------------------------
 (4) _INTERRUPT_InterruptManager                           0     0      0     167
                   _ECCP3_CaptureISR
                           _TMR0_ISR
 ---------------------------------------------------------------------------------
 (5) _TMR0_ISR                                             0     0      0       0
                      _TMR0_CallBack
 ---------------------------------------------------------------------------------
 (6) _TMR0_CallBack                                        0     0      0       0
                                NULL *
       _TMR0_DefaultInterruptHandler *
                   _TMR0_EvenHandler *
 ---------------------------------------------------------------------------------
 (7) _TMR0_EvenHandler                                     1     1      0       0
                                              0 COMMON     1     1      0
 ---------------------------------------------------------------------------------
 (7) _TMR0_DefaultInterruptHandler                         0     0      0       0
 ---------------------------------------------------------------------------------
 (7) NULL(Fake)                                            0     0      0       0
 ---------------------------------------------------------------------------------
 (5) _ECCP3_CaptureISR                                     2     2      0     167
                                              4 COMMON     2     2      0
                     _ECCP3_CallBack
 ---------------------------------------------------------------------------------
 (6) _ECCP3_CallBack                                       4     2      2     120
                                              0 COMMON     4     2      2
 ---------------------------------------------------------------------------------
 Estimated maximum stack depth 7
 ---------------------------------------------------------------------------------

 Call Graph Graphs:

 _main (ROOT)
   _EPWM1_LoadDutyValue
   _Exception_handling
     _EPWM1_LoadDutyValue
   _LED_output
     _DRL_ON
       _EPWM1_LoadDutyValue
     _EPWM1_LoadDutyValue
   _SYSTEM_Initialize
     _ECCP3_Initialize
     _EPWM1_Initialize
     _OSCILLATOR_Initialize
     _PIN_MANAGER_Initialize
     _TMR0_Initialize
       _TMR0_SetInterruptHandler
     _TMR1_Initialize
     _TMR2_Initialize
     _WDT_Initialize
   _TMR0_SetInterruptHandler
   _check_input
   _getFrameData

 _INTERRUPT_InterruptManager (ROOT)
   _ECCP3_CaptureISR
     _ECCP3_CallBack
   _TMR0_ISR
     _TMR0_CallBack
       NULL(Fake) *
       _TMR0_DefaultInterruptHandler *
       _TMR0_EvenHandler *

 Address spaces:
Name               Size   Autos  Total    Cost      Usage
BIGRAM             1F0      0       0       0        0.0%
EEDATA             100      0       0       0        0.0%
NULL                 0      0       0       0        0.0%
CODE                 0      0       0       0        0.0%
BITCOMMON            E      0       0       1        0.0%
BITSFR0              0      0       0       1        0.0%
SFR0                 0      0       0       1        0.0%
COMMON               E      6       C       2       85.7%
BITSFR1              0      0       0       2        0.0%
SFR1                 0      0       0       2        0.0%
BITSFR2              0      0       0       3        0.0%
SFR2                 0      0       0       3        0.0%
STACK                0      0       0       3        0.0%
BITSFR3              0      0       0       4        0.0%
SFR3                 0      0       0       4        0.0%
ABS                  0      0      7A       4        0.0%
BITBANK0            50      0       0       5        0.0%
BITSFR4              0      0       0       5        0.0%
SFR4                 0      0       0       5        0.0%
BANK0               50      9      2E       6       57.5%
BITSFR5              0      0       0       6        0.0%
SFR5                 0      0       0       6        0.0%
BITBANK1            50      0       0       7        0.0%
BITSFR6              0      0       0       7        0.0%
SFR6                 0      0       0       7        0.0%
BANK1               50      0      40       8       80.0%
BITSFR7              0      0       0       8        0.0%
SFR7                 0      0       0       8        0.0%
BITBANK2            50      0       0       9        0.0%
BITSFR8              0      0       0       9        0.0%
SFR8                 0      0       0       9        0.0%
BANK2               50      0       0      10        0.0%
BITSFR9              0      0       0      10        0.0%
SFR9                 0      0       0      10        0.0%
BITBANK3            50      0       0      11        0.0%
BITSFR10             0      0       0      11        0.0%
SFR10                0      0       0      11        0.0%
BANK3               50      0       0      12        0.0%
BITSFR11             0      0       0      12        0.0%
SFR11                0      0       0      12        0.0%
BITBANK4            50      0       0      13        0.0%
BITSFR12             0      0       0      13        0.0%
SFR12                0      0       0      13        0.0%
BANK4               50      0       0      14        0.0%
BITSFR13             0      0       0      14        0.0%
SFR13                0      0       0      14        0.0%
BITBANK5            50      0       0      15        0.0%
BITSFR14             0      0       0      15        0.0%
SFR14                0      0       0      15        0.0%
BANK5               50      0       0      16        0.0%
BITSFR15             0      0       0      16        0.0%
SFR15                0      0       0      16        0.0%
BITBANK6            10      0       0      17        0.0%
BITSFR16             0      0       0      17        0.0%
SFR16                0      0       0      17        0.0%
BANK6               10      0       0      18        0.0%
BITSFR17             0      0       0      18        0.0%
SFR17                0      0       0      18        0.0%
BITSFR18             0      0       0      19        0.0%
SFR18                0      0       0      19        0.0%
DATA                 0      0      7A      19        0.0%
BITSFR19             0      0       0      20        0.0%
SFR19                0      0       0      20        0.0%
BITSFR20             0      0       0      21        0.0%
SFR20                0      0       0      21        0.0%
BITSFR21             0      0       0      22        0.0%
SFR21                0      0       0      22        0.0%
BITSFR22             0      0       0      23        0.0%
SFR22                0      0       0      23        0.0%
BITSFR23             0      0       0      24        0.0%
SFR23                0      0       0      24        0.0%
BITSFR24             0      0       0      25        0.0%
SFR24                0      0       0      25        0.0%
BITSFR25             0      0       0      26        0.0%
SFR25                0      0       0      26        0.0%
BITSFR26             0      0       0      27        0.0%
SFR26                0      0       0      27        0.0%
BITSFR27             0      0       0      28        0.0%
SFR27                0      0       0      28        0.0%
BITSFR28             0      0       0      29        0.0%
SFR28                0      0       0      29        0.0%
BITSFR29             0      0       0      30        0.0%
SFR29                0      0       0      30        0.0%
BITSFR30             0      0       0      31        0.0%
SFR30                0      0       0      31        0.0%
BITSFR31             0      0       0      32        0.0%
SFR31                0      0       0      32        0.0%


Microchip Technology PIC Macro Assembler V2.46 build 20240104201356 
Symbol Table                                                                                   Thu Oct 23 10:43:59 2025

                                      _D2 0074                                        _D3 0041  
                                      l50 03C4                                        l60 040D  
                                      l53 03D1                                        l46 03BD  
                                      l47 03BF                                        l71 007A  
                                      l48 03C2                                        l56 0401  
                                      l80 008C                                        l72 006F  
                                      l64 01C2                                        l90 00B5  
                                      l74 0071                                        l66 0059  
                                      l83 00A5                                        l92 00B7  
                                      l84 00A1                                        l68 005E  
                                      l77 0091                                        l69 005C  
                                      _CS 00A0                                        l86 00A3  
                                      l78 008A                                        l95 00CD  
                                      l96 00C9                                        l89 00B9  
                                      l98 00CB                           _timer0ReloadVal 0035  
                                     l101 00E1                                       l110 00F3  
                                     l102 00DD                                       l120 0119  
                                     l104 00DF                                       l113 0109  
                                     l122 011B                                       l114 0105  
                                     l131 014D                                       l107 00F5  
                                     l140 015F                                       l132 0149  
                                     l116 0107                                       l108 00F1  
                                     l204 02FE                                       l125 0139  
                                     l150 0185                                       l134 014B  
                                     l126 0135                                       l310 04A6  
                                     l143 0175                                       l119 0125  
                                     l152 0187                                       l144 0171  
                                     l128 0137                                       l313 0429  
                                     l137 0161                                       l162 01AD  
                                     l146 0173                                       l138 015D  
                                     l170 038B                                       l155 019D  
                                     l403 03EF                                       l171 038C  
                                     l164 01AF                                       l148 01B1  
                                     l156 0199                                       l180 03AE  
                                     l172 0392                                       l149 0189  
                                     l173 0393                                       l261 0353  
                                     l158 019B                                       l422 046E  
                                     l182 03AF                                       l174 0399  
                                     l175 039A                                       l176 03A0  
                                     l177 03A1                                       l290 04C9  
                                     l178 03A7                                       l435 04E3  
                                     l363 0442                                       l179 03A8  
                                     l372 04E7                                       l453 0499  
                                     l366 04BA                                       l464 04D1  
                                     l369 04BF                                       _PR2 001B  
                         _timer1ReloadVal 002B                           _TMR2_Initialize 04CA  
                                     wreg 0009                  __end_of_ECCP3_Initialize 04CA  
                             ?_LED_output 0076                                      l2000 04A0  
                                    l2002 04A2                                      l2010 03D5  
                                    l2100 0086                                      l2004 04A3  
                                    l2020 03E0                                      l2012 03D7  
                                    l2102 008D                                      l2006 04A4  
                                    l2030 03ED                                      l2022 03E2  
                                    l2014 03D9                                      l2200 018D  
                                    l2120 00BD                                      l2112 00A9  
                                    l2104 0095                                      l2032 04B4  
                                    l2024 03E5                                      l2016 03DC  
                                    l2008 03D2                                      l2040 04CA  
                                    l2210 01A5                                      l2202 0191  
                                    l2130 00D5                                      l2122 00C1  
                                    l2114 00AD                                      l2106 0099  
                                    l2034 04B7                                      l2026 03E9  
                                    l2018 03DE                                      l2050 0490  
                                    l2042 04CD                                      l2212 01A9  
                                    l2204 0195                                      l2140 00ED  
                                    l2132 00D9                                      l2124 00C5  
                                    l2116 00B1                                      l2108 009D  
                                    l2036 04B8                                      l2028 03EB  
                                    l2060 0463                                      l2052 0491  
                                    l2044 04CE                                      l2300 034C  
                                    l2070 03B7                                      l2222 01B3  
                                    l2062 0465                                      l2054 0492  
                                    l2046 04CF                                      l2038 04E4  
                                    l2230 0384                                      l2310 035E  
                                    l2302 0351                                      l2072 03C5  
                                    l2224 01B8                                      l2208 01A1  
                                    l2160 0129                                      l2152 010D  
                                    l2144 00F9                                      l2136 00E5  
                                    l2128 00D1                                      l2216 01B1  
                                    l2080 004D                                      l2064 0466  
                                    l2056 045B                                      l2048 048D  
                                    l2240 039E                                      l2232 0385  
                                    l2320 0370                                      l2312 0364  
                                    l2304 0355                                      l2074 03CD  
                                    l2226 01BC                                      l2170 0141  
                                    l2162 012D                                      l2154 0111  
                                    l2146 00FD                                      l2138 00E9  
                                    l2090 0067                                      l2066 0467  
                                    l2058 0460                                      l2242 03A5  
                                    l2234 0389                                      l2250 0296  
                                    l2322 0372                                      l2314 0369  
                                    l2306 0358                                      l2076 03D0  
                                    l2068 03B0                                      l2180 0159  
                                    l2172 0145                                      l2164 0131  
                                    l2156 0115                                      l2148 0101  
                                    l2092 006B                                      l2084 0054  
                                    l2244 03AC                                      l2236 0390  
                                    l2228 037F                                      l2260 02A9  
                                    l2252 029C                                      l2324 0373  
                                    l2316 036B                                      l2308 035B  
                                    l2158 011C                                      l2094 0072  
                                    l2086 0055                                      l2078 0046  
                                    l2238 0397                                      l2270 02BD  
                                    l2254 029E                                      l2246 028E  
                                    l2326 0374                                      l2318 036F  
                                    l2192 0179                                      l2184 0165  
                                    l2176 0151                                      l2168 013D  
                                    l2096 007E                                      l2088 0063  
                                    l2280 02D6                                      l2272 02C2  
                                    l2264 02AE                                      l2256 02A1  
                                    l2248 0294                                      l2194 017D  
                                    l2186 0169                                      l2178 0155  
                                    l2098 0082                                      l2282 02D8  
                                    l2274 02C7                                      l2266 02B3  
                                    l2258 02A3                                      l2290 02DB  
                                    l2196 0181                                      l2188 016D  
                                    l2292 042A                                      l2276 02CC  
                                    l2268 02B8                                      l2278 02D1  
                                    l2294 033F                                      l2296 034A  
                                    l2298 034B                                      l1970 04DE  
                                    l1972 03F0                                      l1982 0406  
                                    l1974 03F5                                      l1990 04C5  
                                    l1968 040E                                      l1976 03FA  
                                    l1992 04C7                                      l1984 04C0  
                                    l1978 03FE                                      l1986 04C3  
                                    l1994 049A                                      l1988 04C4  
                                    l1996 049D                                      l1998 049E  
                                    u2200 0053                                      u2201 0052  
                                    u2210 0059                                      u2211 0058  
                                    u2140 03FA                                      u2300 0095  
                                    u2220 0063                                      u2141 03F9  
                                    u2301 0094                                      u2221 0062  
                                    _LATA 010C                                      u2150 03FE  
                                    u2310 0099                                      u2230 0067  
                                    _LATB 010D                                      u2135 041F  
                                    u2151 03FD                                      u2311 0098  
                                    u2231 0066                                      _LATC 010E  
                                    u2160 0405                                      u2400 00C5  
                                    u2320 009D                                      u2240 006B  
                                    u2161 0404                                      u2401 00C4  
                                    u2321 009C                                      u2241 006A  
                                    _LATE 0110                                      u2410 00C9  
                                    u2330 00A1                                      u2250 006F  
                                    u2170 04BF                                      u2411 00C8  
                                    u2331 00A0                                      u2251 006E  
                                    u2171 04BE                                      u2180 03B7  
                                    u2500 00F9                                      u2420 00D1  
                                    u2340 00A9                                      u2260 007E  
                                    u2181 03B6                                      u2501 00F8  
                                    u2421 00D0                                      u2341 00A8  
                                    u2261 007D                                      u2190 03BD  
                                    u2510 00FD                                      u2430 00D5  
                                    u2350 00AD                                      u2270 0082  
                                    u2191 03BC                                      u2511 00FC  
                                    u2431 00D4                                      u2351 00AC  
                                    u2271 0081                                      u2600 0131  
                                    u2520 0101                                      u2440 00D9  
                                    u2360 00B1                                      u2280 0086  
                                    u2601 0130                                      u2521 0100  
                                    u2441 00D8                                      u2361 00B0  
                                    u2281 0085                                      u2610 0135  
                                    u2530 0105                                      u2450 00DD  
                                    u2370 00B5                                      u2290 008A  
                                    u2611 0134                                      u2531 0104  
                                    u2451 00DC                                      u2371 00B4  
                                    u2291 0089                                      u2700 0165  
                                    u2620 013D                                      u2540 010D  
                                    u2460 00E5                                      u2380 00BD  
                                    u2701 0164                                      u2621 013C  
                                    u2541 010C                                      u2461 00E4  
                                    u2381 00BC                                      u2710 0169  
                                    u2630 0141                                      u2550 0111  
                                    u2470 00E9                                      u2390 00C1  
                                    u2711 0168                                      u2631 0140  
                                    u2551 0110                                      u2471 00E8  
                                    u2391 00C0                                      u2800 0195  
                                    u2720 016D                                      u2640 0145  
                                    u2560 0115                                      u2480 00ED  
                                    u2801 0194                                      u2721 016C  
                                    u2641 0144                                      u2561 0114  
                                    u2481 00EC                                      u2810 0199  
                                    u2730 0171                                      u2650 0149  
                                    u2570 0119                                      u2490 00F1  
                                    u2811 0198                                      u2731 0170  
                                    u2651 0148                                      u2571 0118  
                                    u2491 00F0                                      u2820 01A1  
                                    u2740 0179                                      u2660 0151  
                                    u2580 0129                                      u2900 039E  
                                    u2821 01A0                                      u2741 0178  
                                    u2661 0150                                      u2581 0128  
                                    u2901 039D                                      u2830 01A5  
                                    u2750 017D                                      u2670 0155  
                                    u2590 012D                                      u2910 03A5  
                                    u2831 01A4                                      u2751 017C  
                                    u2671 0154                                      u2591 012C  
                                    u2911 03A4                                      u2840 01A9  
                                    u2760 0181                                      u2680 0159  
                                    u2920 03AC                                      u2841 01A8  
                                    u2761 0180                                      u2681 0158  
                                    u2921 03AB                                      u2850 01AD  
                                    u2770 0185                                      u2690 015D  
                                    u2930 0294                                      u2851 01AC  
                                    u2771 0184                                      u2691 015C  
                                    u2931 0293                                      u2860 01C2  
                                    u2780 018D                                      u2940 029C  
                                    u2861 01C1                                      u2781 018C  
                                    u2941 029B                                      u2790 0191  
                                    u2870 0389                                      u2950 02A9  
                                    u2791 0190                                      u2871 0388  
                                    u2951 02A8                                      u2880 0390  
                                    u2960 0351                                      u2881 038F  
                                    u2961 0350                                      u2890 0397  
                                    u2970 0364                                      u2891 0396  
                                    u2971 0363                                      u2980 0369  
                                    u2981 0368                                      _PLLR 04D6  
                                    _TMR0 0015                                      _TMR2 001A  
                                    _WPUB 020D                                      _WPUE 0210  
                     ECCP3_CallBack@HI_us 003B                       ECCP3_CallBack@LO_us 003A  
                                    _main 033F                                      fsr0h 0005  
                                    fsr1h 0007                                      indf0 0000  
                                    fsr0l 0004                                      indf1 0001  
                                    fsr1l 0006                                      _step 0042  
                                    btemp 007E                       ECCP3_CallBack@fHead 0037  
                                    start 0026                     ??_EPWM1_LoadDutyValue 0047  
                 __end_of_TMR0_Initialize 046F            ??_TMR0_DefaultInterruptHandler 0076  
           __end_of_OSCILLATOR_Initialize 04C0                                     ?_main 0076  
                                   _T1CON 0018                                     _T2CON 001C  
                                   i1l230 01F4                                     i1l232 0219  
                                   i1l241 0233                                     i1l234 021E  
                                   i1l243 0251                                     i1l251 028D  
                                   i1l228 025F                                     i1l244 0243  
                                   i1l333 0024                                     i1l334 0024  
                                   i1l255 047D                                     i1l432 04B3  
                                   i1l328 0012                                     i1l428 045A  
                                   i1l293 048C                                     i1l438 04E8  
                __end_of_TMR0_EvenHandler 047E                                     _TMR1H 0017  
                                   _TMR1L 0016                                     _TRISA 008C  
                                   _TRISB 008D                                     _TRISC 008E  
                                   _TRISE 0090                 ?_TMR0_SetInterruptHandler 0045  
              __end_of_Exception_handling 03D2                          __end_of_TMR0_ISR 045B  
                          _WDT_Initialize 04E4                   __end_of_TMR1_Initialize 049A  
                                   pclath 000A                                     status 0003  
                                   wtemp0 007E              ECCP3_CallBack@pluse_width_HI 0031  
            ECCP3_CallBack@pluse_width_LO 0033                      __end_of_getFrameData 02FF  
                         __initialization 0028                              __end_of_main 037F  
                 __end_of_TMR2_Initialize 04D2               ?_INTERRUPT_InterruptManager 0076  
                                  ??_main 004E           ECCP3_CallBack@falling_edge_time 0072  
                  __end_of_WDT_Initialize 04E8                                    _CCPR1H 0292  
                                  _CCPR3H 0312                                    _CCPR1L 0291  
                                  _CCPR3L 0311                                    _APFCON 011D  
                                  _ANSELA 018C                                    _ANSELB 018D  
                                  _BORCON 0116                                    _T1GCON 0019  
                                  u112_20 01CA                                    u112_21 01C9  
                                  i1l1522 046F                                    u120_24 024B  
                                  i1l1524 0474                                    u120_25 024A  
                                  i1l1550 01D6                                    i1l1526 047A  
                                  u121_20 025B                                    i1l1560 0212  
                                  i1l1552 01D7                                    u113_20 01D6  
                                  i1l1544 01C3                                    i1l1528 047C  
                                  u121_21 025A                                    u113_21 01D5  
                                  i1l1570 022A                                    i1l1562 0216  
                                  i1l1554 01E1                                    i1l1546 01CA  
                                  i1l1580 025B                                    i1l1564 0220  
                                  i1l1572 022D                                    i1l1556 01E8  
                                  i1l1548 01D0                                    i1l1590 027E  
                                  i1l1582 025C                                    i1l1574 0235  
                                  i1l1566 0227                                    i1l1558 020C  
                                  i1l1910 0480                                    i1l1592 028B  
                                  u122_20 0266                                    i1l1576 0245  
                                  i1l1568 0229                                    u114_20 01E1  
                                  i1l1584 0260                                    i1l1912 0485  
                                  i1l1680 04AE                                    i1l1920 0457  
                                  u210_20 0016                                    u122_21 0265  
                                  u114_21 01E0                                    u210_21 0015  
                                  i1l1586 0266                                    i1l1578 0255  
                                  i1l1914 0443                                    i1l1588 0276  
                                  i1l1908 047E                                    i1l1916 0444  
                                  u114_25 01DD                                    i1l1678 04A7  
                                  i1l1918 0454                                    u123_20 0276  
                                  u115_20 0212                                    u211_20 001B  
                                  i1l1960 000E                                    _DRL_ON 03F0  
                                  u123_21 0275                                    u115_21 0211  
                                  u211_21 001A                                    i1l1962 0016  
                                  i1l1964 001B                                    i1l1956 0006  
                                  u123_25 0272                                    i1l1966 0020  
                                  i1l1958 000A                                    u116_20 021E  
                                  u108_20 047A                                    u204_20 0454  
                                  u212_20 0020                                    u116_21 021D  
                                  u108_21 0479                                    u204_21 0453  
                                  u212_21 001F                                    u117_20 0227  
                                  u125_20 04AE                                    u117_21 0226  
                                  u125_21 04AD                                    u118_20 0233  
                                  u118_21 0232                                    u119_24 023B  
                                  u119_25 023A                                    u208_20 000A  
                                  u208_21 0009                                    u209_20 000E  
                                  u209_21 000D                                    _OSCCON 0099  
                                  _WDTCON 0097                               LED_output@i 004D  
                            _CCPTMRS0bits 029E            ECCP3_CallBack@rising_edge_time 0070  
                                  _csFlag 0040                          ?_TMR0_Initialize 0076  
                       ?_ECCP3_CaptureISR 0076                           ?_WDT_Initialize 0076  
                      ??_ECCP3_CaptureISR 007A                                _fException 003E  
                   __end_of_TMR0_CallBack 04B4  TMR0_SetInterruptHandler@InterruptHandler 0045  
                   ECCP3_CallBack@diff_us 0039                          ?_TMR1_Initialize 0076  
                       _SYSTEM_Initialize 042A                   __end_of__initialization 0042  
                      ?_SYSTEM_Initialize 0076                         ?_EPWM1_Initialize 0076  
                          __pcstackCOMMON 0076                              __pidataBANK1 02FF  
                     ??_SYSTEM_Initialize 0047                                 ?_TMR0_ISR 0076  
                      ??_EPWM1_Initialize 0045                          ?_TMR2_Initialize 0076  
                          _OPTION_REGbits 0095                     TMR0_ISR@CountCallBack 002D  
                            ??_LED_output 004B                 __end_of_SYSTEM_Initialize 0443  
                       ?_ECCP3_Initialize 0076                                __pbssBANK0 0020  
                                 ?_DRL_ON 0076                        ??_ECCP3_Initialize 0045  
                              __pmaintext 033F          __end_of_TMR0_SetInterruptHandler 04E4  
                              ??_TMR0_ISR 0077                                __pintentry 0004  
                                 _CCP1CON 0293                                   _CCP3CON 0313  
                                 _ECCP1AS 0295                        __end_of_LED_output 01C3  
                            _getFrameData 028E                         ?_TMR0_EvenHandler 0076  
                                 _OSCTUNE 0098                                   _PWM1CON 0294  
                      ??_TMR0_EvenHandler 0076               __end_of_EPWM1_LoadDutyValue 042A  
                      _Exception_handling 03B0                                 _T10MS_CNT 003F  
                     ?_Exception_handling 0076                            _ECCP3_CallBack 01C3  
                                 __ptext1 028E                                   __ptext2 037F  
                                 __ptext3 042A                                   __ptext4 04E4  
                                 __ptext5 04CA                                   __ptext6 048D  
                                 __ptext7 045B                                   __ptext8 04DE  
                                 __ptext9 03D2                     _OSCILLATOR_Initialize 04B4  
                           ??_check_input 0045                    ECCP3_CaptureISR@module 007A  
                ??_PIN_MANAGER_Initialize 0045                             _data_1byte_OK 0044  
                                 _rx_data 0075                      ??_Exception_handling 0049  
                                 clrloop0 04D9                      end_of_initialization 0042  
                                 init_ram 04D2                                   initloop 04D3  
                             _fException2 003D                    __end_of_ECCP3_CallBack 028E  
                  ECCP3_CallBack@data_cnt 0036                          ??_WDT_Initialize 0045  
                _TMR0_SetInterruptHandler 04DE                                 _PORTBbits 000D  
                     __end_of_check_input 03B0                            __end_of_DRL_ON 040E  
                         ?_ECCP3_CallBack 0076                    ?_OSCILLATOR_Initialize 0076  
                     start_initialization 0028                            LED_output@crc8 004C  
            EPWM1_LoadDutyValue@dutyValue 0045                                  ??_DRL_ON 0049  
                               _fFrame_OK 0043                               __pdataBANK1 00A0  
                               _fLampSide 003C                            DRL_ON@pwm_duty 0049  
                             __pbssCOMMON 0070                               _check_input 037F  
                               ___latbits 0002                             __pcstackBANK0 0045  
                   _TMR0_InterruptHandler 002F                    _PIN_MANAGER_Initialize 03D2  
            ??_INTERRUPT_InterruptManager 007C                             _TMR0_CallBack 04A7  
                       ??_TMR0_Initialize 0047                          _ECCP3_CaptureISR 047E  
                                _LATAbits 010C                                  _LATCbits 010E  
                               clear_ram0 04D8                                  _PIE3bits 0093  
              ??_TMR0_SetInterruptHandler 0047                                  _PIR1bits 0011  
                                _PIR3bits 0013                                  _TMR0_ISR 0443  
                                _PSTR1CON 0296                         ??_TMR1_Initialize 0045  
                        _EPWM1_Initialize 049A                            ?_TMR0_CallBack 0076  
                       ??_TMR2_Initialize 0045                          ??_ECCP3_CallBack 0078  
                        _ECCP3_Initialize 04C0                   ??_OSCILLATOR_Initialize 0045  
             ECCP3_CallBack@capturedValue 0076              ECCP3_CallBack@rise_edge_flag 0038  
                                _data_buf 0020                                  __ptext10 04B4  
                                __ptext11 049A                                  __ptext20 04E8  
                                __ptext12 04C0                                  __ptext21 046F  
                                __ptext13 0046                                  __ptext22 047E  
                                __ptext14 03F0                                  __ptext23 01C3  
                                __ptext15 03B0                                  __ptext16 040E  
                                __ptext18 0443                                  __ptext19 04A7  
                        _TMR0_EvenHandler 046F      __end_of_TMR0_DefaultInterruptHandler 04E9  
            _TMR0_DefaultInterruptHandler 04E8                                  int$flags 007E  
      __end_of_INTERRUPT_InterruptManager 0026                _INTERRUPT_InterruptManager 0004  
                           ?_getFrameData 0076                                _INTCONbits 000B  
                            ?_check_input 0076                           ??_TMR0_CallBack 0077  
                              _LED_output 0046                                  intlevel1 0000  
                 ?_PIN_MANAGER_Initialize 0076             ?_TMR0_DefaultInterruptHandler 0076  
                          ??_getFrameData 0045                  __end_of_ECCP3_CaptureISR 048D  
                              _OPTION_REG 0095                           _TMR0_Initialize 045B  
                     _EPWM1_LoadDutyValue 040E            __end_of_PIN_MANAGER_Initialize 03F0  
                         _TMR1_Initialize 048D                  __end_of_EPWM1_Initialize 04A7  
                    ?_EPWM1_LoadDutyValue 0045  
